                              1 ;;; gcc for m6809 : Mar 17 2019 13:25:32
                              2 ;;; 4.3.6 (gcc6809)
                              3 ;;; ABI version 1
                              4 ;;; -mabi=bx -mint8 -fomit-frame-pointer -O0
                              5 	.module	level.c
                              6 	.globl	_counter
                              7 	.area	.data
   0000                       8 _counter:
   0000 00                    9 	.byte	0
                             10 	.globl	_counterw
   0001                      11 _counterw:
   0001 03                   12 	.byte	3
                             13 	.globl	_a_random
   0002                      14 _a_random:
   0002 03                   15 	.byte	3
   0003 09                   16 	.byte	9
   0004 07                   17 	.byte	7
   0005 05                   18 	.byte	5
   0006 05                   19 	.byte	5
   0007 08                   20 	.byte	8
   0008 04                   21 	.byte	4
   0009 05                   22 	.byte	5
   000A 09                   23 	.byte	9
   000B 08                   24 	.byte	8
   000C 01                   25 	.byte	1
   000D 05                   26 	.byte	5
   000E 09                   27 	.byte	9
   000F 02                   28 	.byte	2
   0010 09                   29 	.byte	9
   0011 06                   30 	.byte	6
   0012 03                   31 	.byte	3
   0013 01                   32 	.byte	1
   0014 06                   33 	.byte	6
   0015 03                   34 	.byte	3
                             35 	.globl	_a_random_compare
   0016                      36 _a_random_compare:
   0016 00 00 00 00 00 00    37 	.word	0,0,0,0,0,0,0,0,0,0
        00 00 00 00 00 00
        00 00 00 00 00 00
        00 00
                             38 	.globl	_RandomSequenceCounter
   002A                      39 _RandomSequenceCounter:
   002A C8                   40 	.byte	-56
                             41 	.globl	_RandomSequenceCounterDisplay
   002B                      42 _RandomSequenceCounterDisplay:
   002B 00                   43 	.byte	0
                             44 	.area	.text
                             45 	.globl	_RandomNumberGenerator
   0000                      46 _RandomNumberGenerator:
   0000 32 7D         [ 5]   47 	leas	-3,s
   0002 6F 62         [ 7]   48 	clr	2,s
   0004 20 2B         [ 3]   49 	bra	L2
   0006                      50 L3:
   0006 E6 62         [ 5]   51 	ldb	2,s
   0008 E7 61         [ 5]   52 	stb	1,s
   000A E6 62         [ 5]   53 	ldb	2,s
   000C 1D            [ 2]   54 	sex		;extendqihi2: R:b -> R:d
   000D 1F 01         [ 6]   55 	tfr	d,x
   000F E6 89`00`02   [ 8]   56 	ldb	_a_random,x
   0013 4F            [ 2]   57 	clra		;zero_extendqihi: R:b -> R:d
   0014 8E 00 0A      [ 3]   58 	ldx	#10
   0017 34 10         [ 6]   59 	pshs	x
   0019 1F 01         [ 6]   60 	tfr	d,x
   001B BD`00`00      [ 8]   61 	jsr	_umodhi3
   001E 32 62         [ 5]   62 	leas	2,s
   0020 1F 10         [ 6]   63 	tfr	x,d	;movlsbqihi: R:x -> R:b
   0022 E7 E4         [ 4]   64 	stb	,s
   0024 E6 61         [ 5]   65 	ldb	1,s
   0026 1D            [ 2]   66 	sex		;extendqihi2: R:b -> R:d
   0027 1F 01         [ 6]   67 	tfr	d,x
   0029 E6 E4         [ 4]   68 	ldb	,s
   002B E7 89`00`02   [ 8]   69 	stb	_a_random,x
   002F 6C 62         [ 7]   70 	inc	2,s
   0031                      71 L2:
   0031 E6 62         [ 5]   72 	ldb	2,s
   0033 C1 13         [ 2]   73 	cmpb	#19	;cmpqi:
   0035 2F CF         [ 3]   74 	ble	L3
   0037 32 63         [ 5]   75 	leas	3,s
   0039 39            [ 5]   76 	rts
                             77 	.globl	_current_level
                             78 	.area	.data
   002C                      79 _current_level:
   002C 00                   80 	.byte	0
                             81 	.area	.text
                             82 	.globl	_level_init
   003A                      83 _level_init:
   003A BD`00`00      [ 8]   84 	jsr	_RandomNumberGenerator
   003D 7F`00`2C      [ 7]   85 	clr	_current_level
   0040 39            [ 5]   86 	rts
                             87 	.globl	_SequenceTime
                             88 	.area	.data
   002D                      89 _SequenceTime:
   002D 01                   90 	.byte	1
                             91 	.area	.text
   0041                      92 LC0:
   0041 54 49 4D 45 20 4C    93 	.byte	84,73,77,69,32,76,69,70
        45 46
   0049 54 80 00             94 	.byte	84,-128,0
   004C                      95 LC1:
   004C 47 41 4D 45 20 4F    96 	.byte	71,65,77,69,32,79,86,69
        56 45
   0054 52 80 00             97 	.byte	82,-128,0
                             98 	.globl	_Display_TimeLeft
   0057                      99 _Display_TimeLeft:
   0057 C6 C4         [ 2]  100 	ldb	#-60
   0059 E7 E2         [ 6]  101 	stb	,-s
   005B 8E`00`41      [ 3]  102 	ldx	#LC0
   005E C6 64         [ 2]  103 	ldb	#100
   0060 BD`00`00      [ 8]  104 	jsr	_print_string
   0063 32 61         [ 5]  105 	leas	1,s
   0065 F6`00`00      [ 5]  106 	ldb	_counter
   0068 BD`00`00      [ 8]  107 	jsr	_Loadingbar
   006B F6`00`01      [ 5]  108 	ldb	_counterw
   006E 5A            [ 2]  109 	decb
   006F F7`00`01      [ 5]  110 	stb	_counterw
   0072 F6`00`01      [ 5]  111 	ldb	_counterw
   0075 5D            [ 2]  112 	tstb
   0076 26 0C         [ 3]  113 	bne	L8
   0078 F6`00`00      [ 5]  114 	ldb	_counter
   007B 5A            [ 2]  115 	decb
   007C F7`00`00      [ 5]  116 	stb	_counter
   007F C6 03         [ 2]  117 	ldb	#3
   0081 F7`00`01      [ 5]  118 	stb	_counterw
   0084                     119 L8:
   0084 F6`00`00      [ 5]  120 	ldb	_counter
   0087 5D            [ 2]  121 	tstb
   0088 26 10         [ 3]  122 	bne	L11
   008A                     123 L10:
   008A C6 C4         [ 2]  124 	ldb	#-60
   008C E7 E2         [ 6]  125 	stb	,-s
   008E 8E`00`4C      [ 3]  126 	ldx	#LC1
   0091 C6 64         [ 2]  127 	ldb	#100
   0093 BD`00`00      [ 8]  128 	jsr	_print_string
   0096 32 61         [ 5]  129 	leas	1,s
   0098 20 F0         [ 3]  130 	bra	L10
   009A                     131 L11:
   009A 39            [ 5]  132 	rts
   009B                     133 LC2:
   009B 52 45 4D 45 4D 42   134 	.byte	82,69,77,69,77,66,69,82
        45 52
   00A3 20 54 48 45 80 00   135 	.byte	32,84,72,69,-128,0
   00A9                     136 LC3:
   00A9 53 45 51 55 45 4E   137 	.byte	83,69,81,85,69,78,67,69
        43 45
   00B1 80 00               138 	.byte	-128,0
                            139 	.globl	_Display_RandomSequence
   00B3                     140 _Display_RandomSequence:
   00B3 32 7D         [ 5]  141 	leas	-3,s
   00B5 6F 62         [ 7]  142 	clr	2,s
   00B7 16 00 8B      [ 5]  143 	lbra	L13
   00BA                     144 L15:
   00BA C6 C8         [ 2]  145 	ldb	#-56
   00BC F7`00`00      [ 5]  146 	stb	_counter
   00BF BD`00`00      [ 8]  147 	jsr	___Wait_Recal
   00C2 BD`00`00      [ 8]  148 	jsr	_Display_Gamefield
   00C5 C6 B5         [ 2]  149 	ldb	#-75
   00C7 E7 E2         [ 6]  150 	stb	,-s
   00C9 8E`00`9B      [ 3]  151 	ldx	#LC2
   00CC C6 64         [ 2]  152 	ldb	#100
   00CE BD`00`00      [ 8]  153 	jsr	_print_string
   00D1 32 61         [ 5]  154 	leas	1,s
   00D3 C6 CE         [ 2]  155 	ldb	#-50
   00D5 E7 E2         [ 6]  156 	stb	,-s
   00D7 8E`00`A9      [ 3]  157 	ldx	#LC3
   00DA C6 50         [ 2]  158 	ldb	#80
   00DC BD`00`00      [ 8]  159 	jsr	_print_string
   00DF 32 61         [ 5]  160 	leas	1,s
   00E1 E6 62         [ 5]  161 	ldb	2,s
   00E3 4F            [ 2]  162 	clra		;zero_extendqihi: R:b -> R:d
   00E4 1F 01         [ 6]  163 	tfr	d,x
   00E6 E6 89`00`02   [ 8]  164 	ldb	_a_random,x
   00EA BD`00`00      [ 8]  165 	jsr	_draw_cross
   00ED E6 62         [ 5]  166 	ldb	2,s
   00EF 5C            [ 2]  167 	incb
   00F0 86 64         [ 2]  168 	lda	#100	;umulqihi3
   00F2 3D            [11]  169 	mul
                            170 		;movlsbqihi: D->B
   00F3 4F            [ 2]  171 	clra		;zero_extendqihi: R:b -> R:d
   00F4 ED E4         [ 5]  172 	std	,s
   00F6 C6 C8         [ 2]  173 	ldb	#-56
   00F8 E7 E2         [ 6]  174 	stb	,-s
   00FA AE 61         [ 6]  175 	ldx	1,s
   00FC C6 01         [ 2]  176 	ldb	#1
   00FE BD`00`00      [ 8]  177 	jsr	_play_tune
   0101 32 61         [ 5]  178 	leas	1,s
   0103 E6 62         [ 5]  179 	ldb	2,s
   0105 5C            [ 2]  180 	incb
   0106 86 64         [ 2]  181 	lda	#100	;umulqihi3
   0108 3D            [11]  182 	mul
                            183 		;movlsbqihi: D->B
   0109 4F            [ 2]  184 	clra		;zero_extendqihi: R:b -> R:d
   010A ED E4         [ 5]  185 	std	,s
   010C C6 C8         [ 2]  186 	ldb	#-56
   010E E7 E2         [ 6]  187 	stb	,-s
   0110 AE 61         [ 6]  188 	ldx	1,s
   0112 C6 02         [ 2]  189 	ldb	#2
   0114 BD`00`00      [ 8]  190 	jsr	_play_tune
   0117 32 61         [ 5]  191 	leas	1,s
   0119 E6 62         [ 5]  192 	ldb	2,s
   011B 5C            [ 2]  193 	incb
   011C 86 64         [ 2]  194 	lda	#100	;umulqihi3
   011E 3D            [11]  195 	mul
                            196 		;movlsbqihi: D->B
   011F 4F            [ 2]  197 	clra		;zero_extendqihi: R:b -> R:d
   0120 ED E4         [ 5]  198 	std	,s
   0122 C6 C8         [ 2]  199 	ldb	#-56
   0124 E7 E2         [ 6]  200 	stb	,-s
   0126 AE 61         [ 6]  201 	ldx	1,s
   0128 C6 03         [ 2]  202 	ldb	#3
   012A BD`00`00      [ 8]  203 	jsr	_play_tune
   012D 32 61         [ 5]  204 	leas	1,s
   012F                     205 L14:
   012F F6`00`2A      [ 5]  206 	ldb	_RandomSequenceCounter
   0132 5A            [ 2]  207 	decb
   0133 F7`00`2A      [ 5]  208 	stb	_RandomSequenceCounter
   0136 F6`00`2A      [ 5]  209 	ldb	_RandomSequenceCounter
   0139 5D            [ 2]  210 	tstb
   013A 10 26 FF 7C   [ 6]  211 	lbne	L15
   013E C6 1E         [ 2]  212 	ldb	#30
   0140 F7`00`2A      [ 5]  213 	stb	_RandomSequenceCounter
   0143 6C 62         [ 7]  214 	inc	2,s
   0145                     215 L13:
   0145 F6`00`2B      [ 5]  216 	ldb	_RandomSequenceCounterDisplay
   0148 5C            [ 2]  217 	incb
   0149 E1 62         [ 5]  218 	cmpb	2,s	;cmpqi:
   014B 22 E2         [ 3]  219 	bhi	L14
   014D 7F`00`2D      [ 7]  220 	clr	_SequenceTime
   0150 32 63         [ 5]  221 	leas	3,s
   0152 39            [ 5]  222 	rts
                            223 	.globl	_buttonspressedcounter
                            224 	.area	.data
   002E                     225 _buttonspressedcounter:
   002E 00                  226 	.byte	0
                            227 	.area	.text
                            228 	.globl	_is_pattern_succesfull
   0153                     229 _is_pattern_succesfull:
   0153 32 7E         [ 5]  230 	leas	-2,s
   0155 6F 61         [ 7]  231 	clr	1,s
   0157 16 00 5F      [ 5]  232 	lbra	L19
   015A                     233 L22:
   015A E6 61         [ 5]  234 	ldb	1,s
   015C 4F            [ 2]  235 	clra		;zero_extendqihi: R:b -> R:d
   015D 1F 01         [ 6]  236 	tfr	d,x
   015F E6 89`00`02   [ 8]  237 	ldb	_a_random,x
   0163 E7 E4         [ 4]  238 	stb	,s
   0165 E6 61         [ 5]  239 	ldb	1,s
   0167 4F            [ 2]  240 	clra		;zero_extendqihi: R:b -> R:d
   0168 1F 01         [ 6]  241 	tfr	d,x
   016A E6 89`00`16   [ 8]  242 	ldb	_a_random_compare,x
   016E E1 E4         [ 4]  243 	cmpb	,s	;cmpqi:(R)
   0170 27 3C         [ 3]  244 	beq	L20
   0172                     245 L21:
   0172 C6 C4         [ 2]  246 	ldb	#-60
   0174 E7 E2         [ 6]  247 	stb	,-s
   0176 8E`00`4C      [ 3]  248 	ldx	#LC1
   0179 C6 64         [ 2]  249 	ldb	#100
   017B BD`00`00      [ 8]  250 	jsr	_print_string
   017E 32 61         [ 5]  251 	leas	1,s
   0180 E6 61         [ 5]  252 	ldb	1,s
   0182 4F            [ 2]  253 	clra		;zero_extendqihi: R:b -> R:d
   0183 1F 01         [ 6]  254 	tfr	d,x
   0185 E6 89`00`02   [ 8]  255 	ldb	_a_random,x
   0189 34 04         [ 6]  256 	pshs	b
   018B C6 CE         [ 2]  257 	ldb	#-50
   018D E7 E2         [ 6]  258 	stb	,-s
   018F C6 BA         [ 2]  259 	ldb	#-70
   0191 BD`00`00      [ 8]  260 	jsr	_print_unsigned_int
   0194 32 62         [ 5]  261 	leas	2,s
   0196 E6 61         [ 5]  262 	ldb	1,s
   0198 4F            [ 2]  263 	clra		;zero_extendqihi: R:b -> R:d
   0199 1F 01         [ 6]  264 	tfr	d,x
   019B E6 89`00`16   [ 8]  265 	ldb	_a_random_compare,x
   019F 34 04         [ 6]  266 	pshs	b
   01A1 C6 CE         [ 2]  267 	ldb	#-50
   01A3 E7 E2         [ 6]  268 	stb	,-s
   01A5 C6 CE         [ 2]  269 	ldb	#-50
   01A7 BD`00`00      [ 8]  270 	jsr	_print_unsigned_int
   01AA 32 62         [ 5]  271 	leas	2,s
   01AC 20 C4         [ 3]  272 	bra	L21
   01AE                     273 L20:
   01AE E6 61         [ 5]  274 	ldb	1,s
   01B0 4F            [ 2]  275 	clra		;zero_extendqihi: R:b -> R:d
   01B1 1F 01         [ 6]  276 	tfr	d,x
   01B3 6F 89`00`16   [10]  277 	clr	_a_random_compare,x
   01B7 6C 61         [ 7]  278 	inc	1,s
   01B9                     279 L19:
   01B9 F6`00`2B      [ 5]  280 	ldb	_RandomSequenceCounterDisplay
   01BC 5C            [ 2]  281 	incb
   01BD E1 61         [ 5]  282 	cmpb	1,s	;cmpqi:
   01BF 10 22 FF 97   [ 6]  283 	lbhi	L22
   01C3 C6 01         [ 2]  284 	ldb	#1
   01C5 F7`00`2D      [ 5]  285 	stb	_SequenceTime
   01C8 F6`00`2B      [ 5]  286 	ldb	_RandomSequenceCounterDisplay
   01CB 5C            [ 2]  287 	incb
   01CC F7`00`2B      [ 5]  288 	stb	_RandomSequenceCounterDisplay
   01CF 7F`00`2E      [ 7]  289 	clr	_buttonspressedcounter
   01D2 C6 C8         [ 2]  290 	ldb	#-56
   01D4 F7`00`00      [ 5]  291 	stb	_counter
   01D7 32 62         [ 5]  292 	leas	2,s
   01D9 39            [ 5]  293 	rts
                            294 	.area	.bss
   0000                     295 _joy_x:	.blkb	1
   0001                     296 _joy_y:	.blkb	1
                            297 	.globl	_temppass
                            298 	.area	.data
   002F                     299 _temppass:
   002F 00                  300 	.byte	0
                            301 	.area	.text
                            302 	.globl	_move_player
   01DA                     303 _move_player:
   01DA 32 7D         [ 5]  304 	leas	-3,s
   01DC BD`00`00      [ 8]  305 	jsr	___Joy_Digital
   01DF F6`00`00      [ 5]  306 	ldb	_Vec_Joy_1_X
   01E2 F7`00`00      [ 5]  307 	stb	_joy_x
   01E5 F6`00`00      [ 5]  308 	ldb	_Vec_Joy_1_Y
   01E8 F7`00`01      [ 5]  309 	stb	_joy_y
   01EB F6`00`00      [ 5]  310 	ldb	_joy_x
   01EE 5D            [ 2]  311 	tstb
   01EF 2C 0B         [ 3]  312 	bge	L25
   01F1 F6`00`01      [ 5]  313 	ldb	_joy_y
   01F4 5D            [ 2]  314 	tstb
   01F5 2F 05         [ 3]  315 	ble	L25
   01F7 C6 01         [ 2]  316 	ldb	#1
   01F9 F7`00`2F      [ 5]  317 	stb	_temppass
   01FC                     318 L25:
   01FC F6`00`00      [ 5]  319 	ldb	_joy_x
   01FF 5D            [ 2]  320 	tstb
   0200 26 0B         [ 3]  321 	bne	L26
   0202 F6`00`01      [ 5]  322 	ldb	_joy_y
   0205 5D            [ 2]  323 	tstb
   0206 2F 05         [ 3]  324 	ble	L26
   0208 C6 02         [ 2]  325 	ldb	#2
   020A F7`00`2F      [ 5]  326 	stb	_temppass
   020D                     327 L26:
   020D F6`00`00      [ 5]  328 	ldb	_joy_x
   0210 5D            [ 2]  329 	tstb
   0211 2F 0B         [ 3]  330 	ble	L27
   0213 F6`00`01      [ 5]  331 	ldb	_joy_y
   0216 5D            [ 2]  332 	tstb
   0217 2F 05         [ 3]  333 	ble	L27
   0219 C6 03         [ 2]  334 	ldb	#3
   021B F7`00`2F      [ 5]  335 	stb	_temppass
   021E                     336 L27:
   021E F6`00`00      [ 5]  337 	ldb	_joy_x
   0221 5D            [ 2]  338 	tstb
   0222 2C 0B         [ 3]  339 	bge	L28
   0224 F6`00`01      [ 5]  340 	ldb	_joy_y
   0227 5D            [ 2]  341 	tstb
   0228 26 05         [ 3]  342 	bne	L28
   022A C6 04         [ 2]  343 	ldb	#4
   022C F7`00`2F      [ 5]  344 	stb	_temppass
   022F                     345 L28:
   022F F6`00`00      [ 5]  346 	ldb	_joy_x
   0232 5D            [ 2]  347 	tstb
   0233 26 0B         [ 3]  348 	bne	L29
   0235 F6`00`01      [ 5]  349 	ldb	_joy_y
   0238 5D            [ 2]  350 	tstb
   0239 26 05         [ 3]  351 	bne	L29
   023B C6 05         [ 2]  352 	ldb	#5
   023D F7`00`2F      [ 5]  353 	stb	_temppass
   0240                     354 L29:
   0240 F6`00`00      [ 5]  355 	ldb	_joy_x
   0243 5D            [ 2]  356 	tstb
   0244 2F 0B         [ 3]  357 	ble	L30
   0246 F6`00`01      [ 5]  358 	ldb	_joy_y
   0249 5D            [ 2]  359 	tstb
   024A 26 05         [ 3]  360 	bne	L30
   024C C6 06         [ 2]  361 	ldb	#6
   024E F7`00`2F      [ 5]  362 	stb	_temppass
   0251                     363 L30:
   0251 F6`00`00      [ 5]  364 	ldb	_joy_x
   0254 5D            [ 2]  365 	tstb
   0255 2C 0B         [ 3]  366 	bge	L31
   0257 F6`00`01      [ 5]  367 	ldb	_joy_y
   025A 5D            [ 2]  368 	tstb
   025B 2C 05         [ 3]  369 	bge	L31
   025D C6 07         [ 2]  370 	ldb	#7
   025F F7`00`2F      [ 5]  371 	stb	_temppass
   0262                     372 L31:
   0262 F6`00`00      [ 5]  373 	ldb	_joy_x
   0265 5D            [ 2]  374 	tstb
   0266 26 0B         [ 3]  375 	bne	L32
   0268 F6`00`01      [ 5]  376 	ldb	_joy_y
   026B 5D            [ 2]  377 	tstb
   026C 2C 05         [ 3]  378 	bge	L32
   026E C6 08         [ 2]  379 	ldb	#8
   0270 F7`00`2F      [ 5]  380 	stb	_temppass
   0273                     381 L32:
   0273 F6`00`00      [ 5]  382 	ldb	_joy_x
   0276 5D            [ 2]  383 	tstb
   0277 2F 0B         [ 3]  384 	ble	L33
   0279 F6`00`01      [ 5]  385 	ldb	_joy_y
   027C 5D            [ 2]  386 	tstb
   027D 2C 05         [ 3]  387 	bge	L33
   027F C6 09         [ 2]  388 	ldb	#9
   0281 F7`00`2F      [ 5]  389 	stb	_temppass
   0284                     390 L33:
   0284 F6`00`2F      [ 5]  391 	ldb	_temppass
   0287 BD`00`00      [ 8]  392 	jsr	_draw_cross
   028A BD`00`00      [ 8]  393 	jsr	___Read_Btns
   028D F6`00`00      [ 5]  394 	ldb	_Vec_Buttons
   0290 C4 01         [ 2]  395 	andb	#1
   0292 5D            [ 2]  396 	tstb
   0293 27 30         [ 3]  397 	beq	L35
   0295 F6`00`2E      [ 5]  398 	ldb	_buttonspressedcounter
   0298 E7 E4         [ 4]  399 	stb	,s
   029A F6`00`2F      [ 5]  400 	ldb	_temppass
   029D E7 61         [ 5]  401 	stb	1,s
   029F E6 E4         [ 4]  402 	ldb	,s
   02A1 4F            [ 2]  403 	clra		;zero_extendqihi: R:b -> R:d
   02A2 1F 01         [ 6]  404 	tfr	d,x
   02A4 E6 61         [ 5]  405 	ldb	1,s
   02A6 E7 89`00`16   [ 8]  406 	stb	_a_random_compare,x
   02AA F6`00`2E      [ 5]  407 	ldb	_buttonspressedcounter
   02AD 5C            [ 2]  408 	incb
   02AE F7`00`2E      [ 5]  409 	stb	_buttonspressedcounter
   02B1 F6`00`2B      [ 5]  410 	ldb	_RandomSequenceCounterDisplay
   02B4 E7 E4         [ 4]  411 	stb	,s
   02B6 E6 E4         [ 4]  412 	ldb	,s
   02B8 5C            [ 2]  413 	incb
   02B9 E7 62         [ 5]  414 	stb	2,s
   02BB F6`00`2E      [ 5]  415 	ldb	_buttonspressedcounter
   02BE E1 62         [ 5]  416 	cmpb	2,s	;cmpqi:(R)
   02C0 26 03         [ 3]  417 	bne	L35
   02C2 BD`01`53      [ 8]  418 	jsr	_is_pattern_succesfull
   02C5                     419 L35:
   02C5 32 63         [ 5]  420 	leas	3,s
   02C7 39            [ 5]  421 	rts
                            422 	.globl	_level_play
   02C8                     423 _level_play:
   02C8 32 7C         [ 5]  424 	leas	-4,s
   02CA 20 34         [ 3]  425 	bra	L37
   02CC                     426 L39:
   02CC BD`00`00      [ 8]  427 	jsr	___DP_to_C8
   02CF BE`00`00      [ 6]  428 	ldx	_current_explosion
   02D2 AF E4         [ 5]  429 	stx	,s
   02D4 AE E4         [ 5]  430 	ldx	,s
   02D6 BD`00`00      [ 8]  431 	jsr	__Explosion_Snd
   02D9 BE`00`00      [ 6]  432 	ldx	_current_music
   02DC AF 62         [ 6]  433 	stx	2,s
   02DE AE 62         [ 6]  434 	ldx	2,s
   02E0 BD`00`00      [ 8]  435 	jsr	__Init_Music_chk
   02E3 BD`00`00      [ 8]  436 	jsr	___Wait_Recal
   02E6 BD`00`00      [ 8]  437 	jsr	__Do_Sound
   02E9 BD`00`00      [ 8]  438 	jsr	___Intensity_5F
   02EC BD`00`00      [ 8]  439 	jsr	_Display_Gamefield
   02EF F6`00`2D      [ 5]  440 	ldb	_SequenceTime
   02F2 5D            [ 2]  441 	tstb
   02F3 27 05         [ 3]  442 	beq	L38
   02F5 BD`00`B3      [ 8]  443 	jsr	_Display_RandomSequence
   02F8 20 06         [ 3]  444 	bra	L37
   02FA                     445 L38:
   02FA BD`00`57      [ 8]  446 	jsr	_Display_TimeLeft
   02FD BD`01`DA      [ 8]  447 	jsr	_move_player
   0300                     448 L37:
   0300 F6`00`2C      [ 5]  449 	ldb	_current_level
   0303 5D            [ 2]  450 	tstb
   0304 27 C6         [ 3]  451 	beq	L39
   0306 32 64         [ 5]  452 	leas	4,s
   0308 39            [ 5]  453 	rts
ASxxxx Assembler V05.50  (Motorola 6809)                                Page 1
Hexadecimal [16-Bits]                                 Sun May  4 00:01:53 2025

Symbol Table

    .__.$$$.       =   2710 L   |     .__.ABS.       =   0000 G
    .__.CPU.       =   0000 L   |     .__.H$L.       =   0001 L
  3 L10                008A R   |   3 L11                009A R
  3 L13                0145 R   |   3 L14                012F R
  3 L15                00BA R   |   3 L19                01B9 R
  3 L2                 0031 R   |   3 L20                01AE R
  3 L21                0172 R   |   3 L22                015A R
  3 L25                01FC R   |   3 L26                020D R
  3 L27                021E R   |   3 L28                022F R
  3 L29                0240 R   |   3 L3                 0006 R
  3 L30                0251 R   |   3 L31                0262 R
  3 L32                0273 R   |   3 L33                0284 R
  3 L35                02C5 R   |   3 L37                0300 R
  3 L38                02FA R   |   3 L39                02CC R
  3 L8                 0084 R   |   3 LC0                0041 R
  3 LC1                004C R   |   3 LC2                009B R
  3 LC3                00A9 R   |     _Display_Gamef     **** GX
  3 _Display_Rando     00B3 GR  |   3 _Display_TimeL     0057 GR
    _Loadingbar        **** GX  |   3 _RandomNumberG     0000 GR
  2 _RandomSequenc     002A GR  |   2 _RandomSequenc     002B GR
  2 _SequenceTime      002D GR  |     _Vec_Buttons       **** GX
    _Vec_Joy_1_X       **** GX  |     _Vec_Joy_1_Y       **** GX
    __Do_Sound         **** GX  |     __Explosion_Sn     **** GX
    __Init_Music_c     **** GX  |     ___DP_to_C8        **** GX
    ___Intensity_5     **** GX  |     ___Joy_Digital     **** GX
    ___Read_Btns       **** GX  |     ___Wait_Recal      **** GX
  2 _a_random          0002 GR  |   2 _a_random_comp     0016 GR
  2 _buttonspresse     002E GR  |   2 _counter           0000 GR
  2 _counterw          0001 GR  |     _current_explo     **** GX
  2 _current_level     002C GR  |     _current_music     **** GX
    _draw_cross        **** GX  |   3 _is_pattern_su     0153 GR
  4 _joy_x             0000 R   |   4 _joy_y             0001 R
  3 _level_init        003A GR  |   3 _level_play        02C8 GR
  3 _move_player       01DA GR  |     _play_tune         **** GX
    _print_string      **** GX  |     _print_unsigne     **** GX
  2 _temppass          002F GR  |     _umodhi3           **** GX

ASxxxx Assembler V05.50  (Motorola 6809)                                Page 2
Hexadecimal [16-Bits]                                 Sun May  4 00:01:53 2025

Area Table

[_CSEG]
   0 _CODE            size    0   flags C080
   2 .data            size   30   flags  100
   3 .text            size  309   flags  100
   4 .bss             size    2   flags    0
[_DSEG]
   1 _DATA            size    0   flags C0C0

