                              1 ;;; gcc for m6809 : Mar 17 2019 13:25:32
                              2 ;;; 4.3.6 (gcc6809)
                              3 ;;; ABI version 1
                              4 ;;; -mabi=bx -mint8 -fomit-frame-pointer -O0
                              5 	.module	level.c
                              6 	.globl	_Level_advancement
                              7 	.area	.text
   0000                       8 _Level_advancement:
   0000 C4                    9 	.byte	-60
   0001 DD                   10 	.byte	-35
   0002 C4                   11 	.byte	-60
   0003 E7                   12 	.byte	-25
   0004 C4                   13 	.byte	-60
   0005 F1                   14 	.byte	-15
   0006 C4                   15 	.byte	-60
   0007 FB                   16 	.byte	-5
   0008 C4                   17 	.byte	-60
   0009 05                   18 	.byte	5
   000A C4                   19 	.byte	-60
   000B 0F                   20 	.byte	15
   000C C4                   21 	.byte	-60
   000D 19                   22 	.byte	25
   000E C4                   23 	.byte	-60
   000F 23                   24 	.byte	35
   0010 BA                   25 	.byte	-70
   0011 DD                   26 	.byte	-35
   0012 BA                   27 	.byte	-70
   0013 E7                   28 	.byte	-25
   0014 BA                   29 	.byte	-70
   0015 F1                   30 	.byte	-15
   0016 BA                   31 	.byte	-70
   0017 FB                   32 	.byte	-5
   0018 BA                   33 	.byte	-70
   0019 05                   34 	.byte	5
   001A BA                   35 	.byte	-70
   001B 0F                   36 	.byte	15
   001C BA                   37 	.byte	-70
   001D 19                   38 	.byte	25
   001E BA                   39 	.byte	-70
   001F 23                   40 	.byte	35
                             41 	.globl	_cross
   0020                      42 _cross:
   0020 00                   43 	.byte	0
   0021 20                   44 	.byte	32
   0022 20                   45 	.byte	32
   0023 FF                   46 	.byte	-1
   0024 E0                   47 	.byte	-32
   0025 E0                   48 	.byte	-32
   0026 00                   49 	.byte	0
   0027 20                   50 	.byte	32
   0028 00                   51 	.byte	0
   0029 FF                   52 	.byte	-1
   002A E0                   53 	.byte	-32
   002B 20                   54 	.byte	32
   002C 01                   55 	.byte	1
   002D 00                   56 	.byte	0
   002E 00                   57 	.byte	0
                             58 	.globl	_square
   002F                      59 _square:
   002F 00                   60 	.byte	0
   0030 3C                   61 	.byte	60
   0031 C4                   62 	.byte	-60
   0032 FF                   63 	.byte	-1
   0033 00                   64 	.byte	0
   0034 78                   65 	.byte	120
   0035 FF                   66 	.byte	-1
   0036 88                   67 	.byte	-120
   0037 00                   68 	.byte	0
   0038 FF                   69 	.byte	-1
   0039 00                   70 	.byte	0
   003A 88                   71 	.byte	-120
   003B FF                   72 	.byte	-1
   003C 78                   73 	.byte	120
   003D 00                   74 	.byte	0
   003E 01                   75 	.byte	1
   003F 00                   76 	.byte	0
   0040 00                   77 	.byte	0
                             78 	.globl	_square_filled
   0041                      79 _square_filled:
   0041 00                   80 	.byte	0
   0042 3C                   81 	.byte	60
   0043 C4                   82 	.byte	-60
   0044 FF                   83 	.byte	-1
   0045 00                   84 	.byte	0
   0046 78                   85 	.byte	120
   0047 FF                   86 	.byte	-1
   0048 88                   87 	.byte	-120
   0049 00                   88 	.byte	0
   004A FF                   89 	.byte	-1
   004B 00                   90 	.byte	0
   004C 88                   91 	.byte	-120
   004D FF                   92 	.byte	-1
   004E 78                   93 	.byte	120
   004F 00                   94 	.byte	0
   0050 FF                   95 	.byte	-1
   0051 88                   96 	.byte	-120
   0052 78                   97 	.byte	120
   0053 00                   98 	.byte	0
   0054 78                   99 	.byte	120
   0055 00                  100 	.byte	0
   0056 FF                  101 	.byte	-1
   0057 88                  102 	.byte	-120
   0058 88                  103 	.byte	-120
   0059 01                  104 	.byte	1
   005A 00                  105 	.byte	0
   005B 00                  106 	.byte	0
                            107 	.globl	_advancement_cross
   005C                     108 _advancement_cross:
   005C 00                  109 	.byte	0
   005D 10                  110 	.byte	16
   005E 20                  111 	.byte	32
   005F FF                  112 	.byte	-1
   0060 E0                  113 	.byte	-32
   0061 E0                  114 	.byte	-32
   0062 00                  115 	.byte	0
   0063 20                  116 	.byte	32
   0064 00                  117 	.byte	0
   0065 FF                  118 	.byte	-1
   0066 E0                  119 	.byte	-32
   0067 20                  120 	.byte	32
   0068 01                  121 	.byte	1
   0069 00                  122 	.byte	0
   006A 00                  123 	.byte	0
                            124 	.globl	_advancement_plus
   006B                     125 _advancement_plus:
   006B 00                  126 	.byte	0
   006C 20                  127 	.byte	32
   006D 10                  128 	.byte	16
   006E FF                  129 	.byte	-1
   006F E0                  130 	.byte	-32
   0070 00                  131 	.byte	0
   0071 00                  132 	.byte	0
   0072 10                  133 	.byte	16
   0073 10                  134 	.byte	16
   0074 FF                  135 	.byte	-1
   0075 00                  136 	.byte	0
   0076 E0                  137 	.byte	-32
   0077 01                  138 	.byte	1
   0078 00                  139 	.byte	0
   0079 00                  140 	.byte	0
                            141 	.globl	_Gamefield
   007A                     142 _Gamefield:
   007A FF                  143 	.byte	-1
   007B 88                  144 	.byte	-120
   007C 00                  145 	.byte	0
   007D FF                  146 	.byte	-1
   007E 00                  147 	.byte	0
   007F 78                  148 	.byte	120
   0080 FF                  149 	.byte	-1
   0081 78                  150 	.byte	120
   0082 00                  151 	.byte	0
   0083 FF                  152 	.byte	-1
   0084 00                  153 	.byte	0
   0085 88                  154 	.byte	-120
   0086 01                  155 	.byte	1
   0087 00                  156 	.byte	0
   0088 00                  157 	.byte	0
                            158 	.globl	_Lifelinestruct
   0089                     159 _Lifelinestruct:
   0089 FF                  160 	.byte	-1
   008A 00                  161 	.byte	0
   008B 1E                  162 	.byte	30
   008C FF                  163 	.byte	-1
   008D 0F                  164 	.byte	15
   008E 0A                  165 	.byte	10
   008F FF                  166 	.byte	-1
   0090 F1                  167 	.byte	-15
   0091 0A                  168 	.byte	10
   0092 FF                  169 	.byte	-1
   0093 00                  170 	.byte	0
   0094 0F                  171 	.byte	15
   0095 FF                  172 	.byte	-1
   0096 F1                  173 	.byte	-15
   0097 0A                  174 	.byte	10
   0098 FF                  175 	.byte	-1
   0099 2D                  176 	.byte	45
   009A 0F                  177 	.byte	15
   009B FF                  178 	.byte	-1
   009C C9                  179 	.byte	-55
   009D 0F                  180 	.byte	15
   009E FF                  181 	.byte	-1
   009F 19                  182 	.byte	25
   00A0 0F                  183 	.byte	15
   00A1 FF                  184 	.byte	-1
   00A2 00                  185 	.byte	0
   00A3 0F                  186 	.byte	15
   00A4 01                  187 	.byte	1
   00A5 00                  188 	.byte	0
   00A6 00                  189 	.byte	0
                            190 	.globl	_Brainright
   00A7                     191 _Brainright:
   00A7 00                  192 	.byte	0
   00A8 88                  193 	.byte	-120
   00A9 78                  194 	.byte	120
   00AA 00                  195 	.byte	0
   00AB 88                  196 	.byte	-120
   00AC 00                  197 	.byte	0
   00AD 00                  198 	.byte	0
   00AE 88                  199 	.byte	-120
   00AF 00                  200 	.byte	0
   00B0 00                  201 	.byte	0
   00B1 88                  202 	.byte	-120
   00B2 00                  203 	.byte	0
   00B3 00                  204 	.byte	0
   00B4 EC                  205 	.byte	-20
   00B5 9C                  206 	.byte	-100
   00B6 00                  207 	.byte	0
   00B7 EC                  208 	.byte	-20
   00B8 9C                  209 	.byte	-100
   00B9 00                  210 	.byte	0
   00BA EC                  211 	.byte	-20
   00BB BA                  212 	.byte	-70
   00BC FF                  213 	.byte	-1
   00BD 00                  214 	.byte	0
   00BE 64                  215 	.byte	100
   00BF FF                  216 	.byte	-1
   00C0 00                  217 	.byte	0
   00C1 64                  218 	.byte	100
   00C2 FF                  219 	.byte	-1
   00C3 00                  220 	.byte	0
   00C4 5A                  221 	.byte	90
   00C5 00                  222 	.byte	0
   00C6 3C                  223 	.byte	60
   00C7 E2                  224 	.byte	-30
   00C8 FF                  225 	.byte	-1
   00C9 9C                  226 	.byte	-100
   00CA 32                  227 	.byte	50
   00CB FF                  228 	.byte	-1
   00CC 00                  229 	.byte	0
   00CD 3C                  230 	.byte	60
   00CE FF                  231 	.byte	-1
   00CF 00                  232 	.byte	0
   00D0 4B                  233 	.byte	75
   00D1 FF                  234 	.byte	-1
   00D2 32                  235 	.byte	50
   00D3 4B                  236 	.byte	75
   00D4 FF                  237 	.byte	-1
   00D5 32                  238 	.byte	50
   00D6 4B                  239 	.byte	75
   00D7 FF                  240 	.byte	-1
   00D8 32                  241 	.byte	50
   00D9 00                  242 	.byte	0
   00DA FF                  243 	.byte	-1
   00DB 1E                  244 	.byte	30
   00DC 3C                  245 	.byte	60
   00DD FF                  246 	.byte	-1
   00DE 50                  247 	.byte	80
   00DF 28                  248 	.byte	40
   00E0 FF                  249 	.byte	-1
   00E1 3C                  250 	.byte	60
   00E2 00                  251 	.byte	0
   00E3 FF                  252 	.byte	-1
   00E4 14                  253 	.byte	20
   00E5 EC                  254 	.byte	-20
   00E6 FF                  255 	.byte	-1
   00E7 0F                  256 	.byte	15
   00E8 E2                  257 	.byte	-30
   00E9 FF                  258 	.byte	-1
   00EA EC                  259 	.byte	-20
   00EB CE                  260 	.byte	-50
   00EC 00                  261 	.byte	0
   00ED 14                  262 	.byte	20
   00EE 32                  263 	.byte	50
   00EF FF                  264 	.byte	-1
   00F0 1E                  265 	.byte	30
   00F1 1E                  266 	.byte	30
   00F2 FF                  267 	.byte	-1
   00F3 46                  268 	.byte	70
   00F4 00                  269 	.byte	0
   00F5 FF                  270 	.byte	-1
   00F6 1E                  271 	.byte	30
   00F7 F6                  272 	.byte	-10
   00F8 FF                  273 	.byte	-1
   00F9 D8                  274 	.byte	-40
   00FA BA                  275 	.byte	-70
   00FB 00                  276 	.byte	0
   00FC 28                  277 	.byte	40
   00FD 46                  278 	.byte	70
   00FE FF                  279 	.byte	-1
   00FF 46                  280 	.byte	70
   0100 00                  281 	.byte	0
   0101 FF                  282 	.byte	-1
   0102 32                  283 	.byte	50
   0103 E7                  284 	.byte	-25
   0104 FF                  285 	.byte	-1
   0105 00                  286 	.byte	0
   0106 C4                  287 	.byte	-60
   0107 FF                  288 	.byte	-1
   0108 CE                  289 	.byte	-50
   0109 E7                  290 	.byte	-25
   010A FF                  291 	.byte	-1
   010B E7                  292 	.byte	-25
   010C CE                  293 	.byte	-50
   010D 00                  294 	.byte	0
   010E 4B                  295 	.byte	75
   010F 4B                  296 	.byte	75
   0110 FF                  297 	.byte	-1
   0111 3C                  298 	.byte	60
   0112 E2                  299 	.byte	-30
   0113 FF                  300 	.byte	-1
   0114 3C                  301 	.byte	60
   0115 E2                  302 	.byte	-30
   0116 FF                  303 	.byte	-1
   0117 3C                  304 	.byte	60
   0118 CE                  305 	.byte	-50
   0119 FF                  306 	.byte	-1
   011A 00                  307 	.byte	0
   011B CE                  308 	.byte	-50
   011C FF                  309 	.byte	-1
   011D 28                  310 	.byte	40
   011E CE                  311 	.byte	-50
   011F FF                  312 	.byte	-1
   0120 1E                  313 	.byte	30
   0121 9C                  314 	.byte	-100
   0122 FF                  315 	.byte	-1
   0123 E2                  316 	.byte	-30
   0124 C4                  317 	.byte	-60
   0125 FF                  318 	.byte	-1
   0126 E2                  319 	.byte	-30
   0127 BF                  320 	.byte	-65
   0128 01                  321 	.byte	1
   0129 00                  322 	.byte	0
   012A 00                  323 	.byte	0
                            324 	.globl	_Brainleft
   012B                     325 _Brainleft:
   012B 00                  326 	.byte	0
   012C 88                  327 	.byte	-120
   012D 88                  328 	.byte	-120
   012E 00                  329 	.byte	0
   012F 88                  330 	.byte	-120
   0130 00                  331 	.byte	0
   0131 00                  332 	.byte	0
   0132 88                  333 	.byte	-120
   0133 00                  334 	.byte	0
   0134 00                  335 	.byte	0
   0135 88                  336 	.byte	-120
   0136 00                  337 	.byte	0
   0137 FF                  338 	.byte	-1
   0138 9C                  339 	.byte	-100
   0139 CE                  340 	.byte	-50
   013A FF                  341 	.byte	-1
   013B 00                  342 	.byte	0
   013C C4                  343 	.byte	-60
   013D FF                  344 	.byte	-1
   013E 00                  345 	.byte	0
   013F B5                  346 	.byte	-75
   0140 FF                  347 	.byte	-1
   0141 32                  348 	.byte	50
   0142 B5                  349 	.byte	-75
   0143 FF                  350 	.byte	-1
   0144 32                  351 	.byte	50
   0145 B5                  352 	.byte	-75
   0146 FF                  353 	.byte	-1
   0147 32                  354 	.byte	50
   0148 00                  355 	.byte	0
   0149 FF                  356 	.byte	-1
   014A 1E                  357 	.byte	30
   014B C4                  358 	.byte	-60
   014C FF                  359 	.byte	-1
   014D 50                  360 	.byte	80
   014E D8                  361 	.byte	-40
   014F FF                  362 	.byte	-1
   0150 3C                  363 	.byte	60
   0151 00                  364 	.byte	0
   0152 FF                  365 	.byte	-1
   0153 14                  366 	.byte	20
   0154 14                  367 	.byte	20
   0155 FF                  368 	.byte	-1
   0156 0F                  369 	.byte	15
   0157 1E                  370 	.byte	30
   0158 FF                  371 	.byte	-1
   0159 EC                  372 	.byte	-20
   015A 32                  373 	.byte	50
   015B 00                  374 	.byte	0
   015C 14                  375 	.byte	20
   015D CE                  376 	.byte	-50
   015E FF                  377 	.byte	-1
   015F 1E                  378 	.byte	30
   0160 E2                  379 	.byte	-30
   0161 FF                  380 	.byte	-1
   0162 46                  381 	.byte	70
   0163 00                  382 	.byte	0
   0164 FF                  383 	.byte	-1
   0165 1E                  384 	.byte	30
   0166 0A                  385 	.byte	10
   0167 FF                  386 	.byte	-1
   0168 D8                  387 	.byte	-40
   0169 46                  388 	.byte	70
   016A 00                  389 	.byte	0
   016B 28                  390 	.byte	40
   016C BA                  391 	.byte	-70
   016D FF                  392 	.byte	-1
   016E 46                  393 	.byte	70
   016F 00                  394 	.byte	0
   0170 FF                  395 	.byte	-1
   0171 32                  396 	.byte	50
   0172 19                  397 	.byte	25
   0173 FF                  398 	.byte	-1
   0174 00                  399 	.byte	0
   0175 3C                  400 	.byte	60
   0176 FF                  401 	.byte	-1
   0177 CE                  402 	.byte	-50
   0178 19                  403 	.byte	25
   0179 FF                  404 	.byte	-1
   017A E7                  405 	.byte	-25
   017B 32                  406 	.byte	50
   017C 00                  407 	.byte	0
   017D 4B                  408 	.byte	75
   017E B5                  409 	.byte	-75
   017F FF                  410 	.byte	-1
   0180 3C                  411 	.byte	60
   0181 1E                  412 	.byte	30
   0182 FF                  413 	.byte	-1
   0183 3C                  414 	.byte	60
   0184 1E                  415 	.byte	30
   0185 FF                  416 	.byte	-1
   0186 3C                  417 	.byte	60
   0187 32                  418 	.byte	50
   0188 FF                  419 	.byte	-1
   0189 00                  420 	.byte	0
   018A 32                  421 	.byte	50
   018B FF                  422 	.byte	-1
   018C 28                  423 	.byte	40
   018D 32                  424 	.byte	50
   018E FF                  425 	.byte	-1
   018F 1E                  426 	.byte	30
   0190 64                  427 	.byte	100
   0191 FF                  428 	.byte	-1
   0192 E2                  429 	.byte	-30
   0193 3C                  430 	.byte	60
   0194 FF                  431 	.byte	-1
   0195 E2                  432 	.byte	-30
   0196 41                  433 	.byte	65
   0197 01                  434 	.byte	1
   0198 00                  435 	.byte	0
   0199 00                  436 	.byte	0
                            437 	.globl	_Positions_Arrow
   019A                     438 _Positions_Arrow:
   019A 3C                  439 	.byte	60
   019B C9                  440 	.byte	-55
   019C 28                  441 	.byte	40
   019D C9                  442 	.byte	-55
   019E 14                  443 	.byte	20
   019F C9                  444 	.byte	-55
                            445 	.globl	_arrow
   01A0                     446 _arrow:
   01A0 00                  447 	.byte	0
   01A1 04                  448 	.byte	4
   01A2 00                  449 	.byte	0
   01A3 FF                  450 	.byte	-1
   01A4 F6                  451 	.byte	-10
   01A5 0A                  452 	.byte	10
   01A6 FF                  453 	.byte	-1
   01A7 F6                  454 	.byte	-10
   01A8 F6                  455 	.byte	-10
   01A9 00                  456 	.byte	0
   01AA 0A                  457 	.byte	10
   01AB 0A                  458 	.byte	10
   01AC FF                  459 	.byte	-1
   01AD 00                  460 	.byte	0
   01AE EC                  461 	.byte	-20
   01AF 01                  462 	.byte	1
   01B0 00                  463 	.byte	0
   01B1 00                  464 	.byte	0
                            465 	.globl	_buttonspressedcounter
                            466 	.area	.data
   0000                     467 _buttonspressedcounter:
   0000 00                  468 	.byte	0
                            469 	.globl	_sneakyoffset
   0001                     470 _sneakyoffset:
   0001 00                  471 	.byte	0
                            472 	.globl	_b
   0002                     473 _b:
   0002 01                  474 	.byte	1
                            475 	.globl	_RandomSequenceCounter
   0003                     476 _RandomSequenceCounter:
   0003 32                  477 	.byte	50
                            478 	.globl	_RandomSequenceCounterDisplay
   0004                     479 _RandomSequenceCounterDisplay:
   0004 01                  480 	.byte	1
                            481 	.globl	_HighscoreNormal
   0005                     482 _HighscoreNormal:
   0005 00                  483 	.byte	0
                            484 	.globl	_HighscoreHard
   0006                     485 _HighscoreHard:
   0006 00                  486 	.byte	0
                            487 	.globl	_HighscoreExtrem
   0007                     488 _HighscoreExtrem:
   0007 00                  489 	.byte	0
                            490 	.globl	_Random_Number_for_random_things
   0008                     491 _Random_Number_for_random_things:
   0008 00                  492 	.byte	0
                            493 	.globl	_SequenceTime
   0009                     494 _SequenceTime:
   0009 01                  495 	.byte	1
                            496 	.globl	_counter
   000A                     497 _counter:
   000A 03                  498 	.byte	3
                            499 	.globl	_joy_x
   000B                     500 _joy_x:
   000B 00                  501 	.byte	0
                            502 	.globl	_joy_y
   000C                     503 _joy_y:
   000C 00                  504 	.byte	0
                            505 	.globl	_temppass
   000D                     506 _temppass:
   000D 00                  507 	.byte	0
                            508 	.area	.bss
                            509 	.globl	_execute_game_playing_state
   0000                     510 _execute_game_playing_state:	.blkb	2
                            511 	.globl	_current_level
                            512 	.area	.data
   000E                     513 _current_level:
   000E 00                  514 	.byte	0
                            515 	.globl	_Displayed_Squares
   000F                     516 _Displayed_Squares:
   000F 10                  517 	.byte	16
   0010 F0                  518 	.byte	-16
   0011`00`00               519 	.word	_draw_square
   0013`0C`E1               520 	.word	_add_square_x
   0015`0D`7F               521 	.word	_add_square_y
   0017 00                  522 	.byte	0
   0018 00                  523 	.byte	0
   0019 10                  524 	.byte	16
   001A 00                  525 	.byte	0
   001B`00`00               526 	.word	_draw_square
   001D`0C`E1               527 	.word	_add_square_x
   001F`0D`7F               528 	.word	_add_square_y
   0021 00                  529 	.byte	0
   0022 00                  530 	.byte	0
   0023 10                  531 	.byte	16
   0024 10                  532 	.byte	16
   0025`00`00               533 	.word	_draw_square
   0027`0C`E1               534 	.word	_add_square_x
   0029`0D`7F               535 	.word	_add_square_y
   002B 00                  536 	.byte	0
   002C 00                  537 	.byte	0
   002D 00                  538 	.byte	0
   002E F0                  539 	.byte	-16
   002F`00`00               540 	.word	_draw_square
   0031`0C`E1               541 	.word	_add_square_x
   0033`0D`7F               542 	.word	_add_square_y
   0035 00                  543 	.byte	0
   0036 00                  544 	.byte	0
   0037 00                  545 	.byte	0
   0038 00                  546 	.byte	0
   0039`00`00               547 	.word	_draw_square
   003B`0C`E1               548 	.word	_add_square_x
   003D`0D`7F               549 	.word	_add_square_y
   003F 00                  550 	.byte	0
   0040 00                  551 	.byte	0
   0041 00                  552 	.byte	0
   0042 10                  553 	.byte	16
   0043`00`00               554 	.word	_draw_square
   0045`0C`E1               555 	.word	_add_square_x
   0047`0D`7F               556 	.word	_add_square_y
   0049 00                  557 	.byte	0
   004A 00                  558 	.byte	0
   004B F0                  559 	.byte	-16
   004C F0                  560 	.byte	-16
   004D`00`00               561 	.word	_draw_square
   004F`0C`E1               562 	.word	_add_square_x
   0051`0D`7F               563 	.word	_add_square_y
   0053 00                  564 	.byte	0
   0054 00                  565 	.byte	0
   0055 F0                  566 	.byte	-16
   0056 00                  567 	.byte	0
   0057`00`00               568 	.word	_draw_square
   0059`0C`E1               569 	.word	_add_square_x
   005B`0D`7F               570 	.word	_add_square_y
   005D 00                  571 	.byte	0
   005E 00                  572 	.byte	0
   005F F0                  573 	.byte	-16
   0060 10                  574 	.byte	16
   0061`00`00               575 	.word	_draw_square
   0063`0C`E1               576 	.word	_add_square_x
   0065`0D`7F               577 	.word	_add_square_y
   0067 00                  578 	.byte	0
   0068 00                  579 	.byte	0
                            580 	.globl	_a_random
   0069                     581 _a_random:
   0069 03                  582 	.byte	3
   006A 09                  583 	.byte	9
   006B 07                  584 	.byte	7
   006C 05                  585 	.byte	5
   006D 05                  586 	.byte	5
   006E 08                  587 	.byte	8
   006F 04                  588 	.byte	4
   0070 05                  589 	.byte	5
   0071 09                  590 	.byte	9
   0072 08                  591 	.byte	8
   0073 01                  592 	.byte	1
   0074 05                  593 	.byte	5
   0075 09                  594 	.byte	9
   0076 02                  595 	.byte	2
   0077 09                  596 	.byte	9
   0078 06                  597 	.byte	6
   0079 03                  598 	.byte	3
   007A 01                  599 	.byte	1
   007B 06                  600 	.byte	6
   007C 03                  601 	.byte	3
                            602 	.globl	_a_random_compare
   007D                     603 _a_random_compare:
   007D 00 00 00 00 00 00   604 	.word	0,0,0,0,0,0,0,0,0,0
        00 00 00 00 00 00
        00 00 00 00 00 00
        00 00
                            605 	.area	.text
                            606 	.globl	_RandomNumberGenerator
   01B2                     607 _RandomNumberGenerator:
   01B2 32 7D         [ 5]  608 	leas	-3,s
   01B4 6F 62         [ 7]  609 	clr	2,s
   01B6 20 2B         [ 3]  610 	bra	L2
   01B8                     611 L3:
   01B8 E6 62         [ 5]  612 	ldb	2,s
   01BA E7 61         [ 5]  613 	stb	1,s
   01BC E6 62         [ 5]  614 	ldb	2,s
   01BE 1D            [ 2]  615 	sex		;extendqihi2: R:b -> R:d
   01BF 1F 01         [ 6]  616 	tfr	d,x
   01C1 E6 89`00`69   [ 8]  617 	ldb	_a_random,x
   01C5 4F            [ 2]  618 	clra		;zero_extendqihi: R:b -> R:d
   01C6 8E 00 0A      [ 3]  619 	ldx	#10
   01C9 34 10         [ 6]  620 	pshs	x
   01CB 1F 01         [ 6]  621 	tfr	d,x
   01CD BD`00`00      [ 8]  622 	jsr	_umodhi3
   01D0 32 62         [ 5]  623 	leas	2,s
   01D2 1F 10         [ 6]  624 	tfr	x,d	;movlsbqihi: R:x -> R:b
   01D4 E7 E4         [ 4]  625 	stb	,s
   01D6 E6 61         [ 5]  626 	ldb	1,s
   01D8 1D            [ 2]  627 	sex		;extendqihi2: R:b -> R:d
   01D9 1F 01         [ 6]  628 	tfr	d,x
   01DB E6 E4         [ 4]  629 	ldb	,s
   01DD E7 89`00`69   [ 8]  630 	stb	_a_random,x
   01E1 6C 62         [ 7]  631 	inc	2,s
   01E3                     632 L2:
   01E3 E6 62         [ 5]  633 	ldb	2,s
   01E5 C1 13         [ 2]  634 	cmpb	#19	;cmpqi:
   01E7 2F CF         [ 3]  635 	ble	L3
   01E9 32 63         [ 5]  636 	leas	3,s
   01EB 39            [ 5]  637 	rts
                            638 	.globl	_rand
   01EC                     639 _rand:
   01EC 32 79         [ 5]  640 	leas	-7,s
   01EE E7 65         [ 5]  641 	stb	5,s
   01F0 6F 66         [ 7]  642 	clr	6,s
   01F2 16 00 72      [ 5]  643 	lbra	L6
   01F5                     644 L7:
   01F5 E6 65         [ 5]  645 	ldb	5,s
   01F7 54            [ 2]  646 	lsrb
   01F8 54            [ 2]  647 	lsrb
   01F9 54            [ 2]  648 	lsrb
   01FA 54            [ 2]  649 	lsrb
   01FB E7 61         [ 5]  650 	stb	1,s
   01FD E6 65         [ 5]  651 	ldb	5,s
   01FF E8 61         [ 5]  652 	eorb	1,s
   0201 E7 65         [ 5]  653 	stb	5,s
   0203 E6 65         [ 5]  654 	ldb	5,s
   0205 58            [ 2]  655 	aslb
   0206 58            [ 2]  656 	aslb
   0207 58            [ 2]  657 	aslb
   0208 E7 E4         [ 4]  658 	stb	,s
   020A E6 E4         [ 4]  659 	ldb	,s
   020C EB 65         [ 5]  660 	addb	5,s
   020E E7 65         [ 5]  661 	stb	5,s
   0210 E6 65         [ 5]  662 	ldb	5,s
   0212 59            [ 2]  663 	rolb
   0213 59            [ 2]  664 	rolb
   0214 59            [ 2]  665 	rolb
   0215 C4 03         [ 2]  666 	andb	#3
   0217 E7 62         [ 5]  667 	stb	2,s
   0219 E6 65         [ 5]  668 	ldb	5,s
   021B E8 62         [ 5]  669 	eorb	2,s
   021D E7 65         [ 5]  670 	stb	5,s
   021F E6 65         [ 5]  671 	ldb	5,s
   0221 58            [ 2]  672 	aslb
   0222 58            [ 2]  673 	aslb
   0223 E7 E4         [ 4]  674 	stb	,s
   0225 E6 E4         [ 4]  675 	ldb	,s
   0227 EB 65         [ 5]  676 	addb	5,s
   0229 E7 65         [ 5]  677 	stb	5,s
   022B E6 65         [ 5]  678 	ldb	5,s
   022D 54            [ 2]  679 	lsrb
   022E 54            [ 2]  680 	lsrb
   022F 54            [ 2]  681 	lsrb
   0230 54            [ 2]  682 	lsrb
   0231 54            [ 2]  683 	lsrb
   0232 E7 63         [ 5]  684 	stb	3,s
   0234 E6 65         [ 5]  685 	ldb	5,s
   0236 E8 63         [ 5]  686 	eorb	3,s
   0238 E7 65         [ 5]  687 	stb	5,s
   023A E6 66         [ 5]  688 	ldb	6,s
   023C E7 64         [ 5]  689 	stb	4,s
   023E E6 66         [ 5]  690 	ldb	6,s
   0240 1D            [ 2]  691 	sex		;extendqihi2: R:b -> R:d
   0241 1F 01         [ 6]  692 	tfr	d,x
   0243 E6 89`00`69   [ 8]  693 	ldb	_a_random,x
   0247 EB 65         [ 5]  694 	addb	5,s
   0249 4F            [ 2]  695 	clra		;zero_extendqihi: R:b -> R:d
   024A 8E 00 0A      [ 3]  696 	ldx	#10
   024D 34 10         [ 6]  697 	pshs	x
   024F 1F 01         [ 6]  698 	tfr	d,x
   0251 BD`00`00      [ 8]  699 	jsr	_umodhi3
   0254 32 62         [ 5]  700 	leas	2,s
   0256 1F 10         [ 6]  701 	tfr	x,d	;movlsbqihi: R:x -> R:b
   0258 E7 E4         [ 4]  702 	stb	,s
   025A E6 64         [ 5]  703 	ldb	4,s
   025C 1D            [ 2]  704 	sex		;extendqihi2: R:b -> R:d
   025D 1F 01         [ 6]  705 	tfr	d,x
   025F E6 E4         [ 4]  706 	ldb	,s
   0261 E7 89`00`69   [ 8]  707 	stb	_a_random,x
   0265 6C 66         [ 7]  708 	inc	6,s
   0267                     709 L6:
   0267 E6 66         [ 5]  710 	ldb	6,s
   0269 C1 13         [ 2]  711 	cmpb	#19	;cmpqi:
   026B 10 2F FF 86   [ 6]  712 	lble	L7
   026F 32 67         [ 5]  713 	leas	7,s
   0271 39            [ 5]  714 	rts
                            715 	.globl	_rand2
   0272                     716 _rand2:
   0272 32 7A         [ 5]  717 	leas	-6,s
   0274 E7 64         [ 5]  718 	stb	4,s
   0276 6F 65         [ 7]  719 	clr	5,s
   0278 20 48         [ 3]  720 	bra	L10
   027A                     721 L11:
   027A E6 64         [ 5]  722 	ldb	4,s
   027C 57            [ 2]  723 	asrb
   027D 57            [ 2]  724 	asrb
   027E 57            [ 2]  725 	asrb
   027F 57            [ 2]  726 	asrb
   0280 E7 61         [ 5]  727 	stb	1,s
   0282 E6 64         [ 5]  728 	ldb	4,s
   0284 E8 61         [ 5]  729 	eorb	1,s
   0286 E7 64         [ 5]  730 	stb	4,s
   0288 E6 64         [ 5]  731 	ldb	4,s
   028A 58            [ 2]  732 	aslb
   028B 58            [ 2]  733 	aslb
   028C 58            [ 2]  734 	aslb
   028D E7 E4         [ 4]  735 	stb	,s
   028F E6 E4         [ 4]  736 	ldb	,s
   0291 EB 64         [ 5]  737 	addb	4,s
   0293 E7 64         [ 5]  738 	stb	4,s
   0295 E6 64         [ 5]  739 	ldb	4,s
   0297 57            [ 2]  740 	asrb
   0298 57            [ 2]  741 	asrb
   0299 57            [ 2]  742 	asrb
   029A 57            [ 2]  743 	asrb
   029B 57            [ 2]  744 	asrb
   029C 57            [ 2]  745 	asrb
   029D E7 62         [ 5]  746 	stb	2,s
   029F E6 64         [ 5]  747 	ldb	4,s
   02A1 E8 62         [ 5]  748 	eorb	2,s
   02A3 E7 64         [ 5]  749 	stb	4,s
   02A5 E6 64         [ 5]  750 	ldb	4,s
   02A7 58            [ 2]  751 	aslb
   02A8 58            [ 2]  752 	aslb
   02A9 E7 E4         [ 4]  753 	stb	,s
   02AB E6 E4         [ 4]  754 	ldb	,s
   02AD EB 64         [ 5]  755 	addb	4,s
   02AF E7 64         [ 5]  756 	stb	4,s
   02B1 E6 64         [ 5]  757 	ldb	4,s
   02B3 57            [ 2]  758 	asrb
   02B4 57            [ 2]  759 	asrb
   02B5 57            [ 2]  760 	asrb
   02B6 57            [ 2]  761 	asrb
   02B7 57            [ 2]  762 	asrb
   02B8 E7 63         [ 5]  763 	stb	3,s
   02BA E6 64         [ 5]  764 	ldb	4,s
   02BC E8 63         [ 5]  765 	eorb	3,s
   02BE E7 64         [ 5]  766 	stb	4,s
   02C0 6C 65         [ 7]  767 	inc	5,s
   02C2                     768 L10:
   02C2 E6 65         [ 5]  769 	ldb	5,s
   02C4 C1 13         [ 2]  770 	cmpb	#19	;cmpqi:
   02C6 2F B2         [ 3]  771 	ble	L11
   02C8 E6 64         [ 5]  772 	ldb	4,s
   02CA 32 66         [ 5]  773 	leas	6,s
   02CC 39            [ 5]  774 	rts
                            775 	.globl	_Display_TimeLeft
   02CD                     776 _Display_TimeLeft:
   02CD F6`00`0A      [ 5]  777 	ldb	_counter
   02D0 BD`00`00      [ 8]  778 	jsr	_Lifeline
   02D3 F6`00`0A      [ 5]  779 	ldb	_counter
   02D6 5D            [ 2]  780 	tstb
   02D7 26 05         [ 3]  781 	bne	L14
   02D9 C6 C8         [ 2]  782 	ldb	#-56
   02DB F7`00`0A      [ 5]  783 	stb	_counter
   02DE                     784 L14:
   02DE F6`00`0A      [ 5]  785 	ldb	_counter
   02E1 5A            [ 2]  786 	decb
   02E2 F7`00`0A      [ 5]  787 	stb	_counter
   02E5 39            [ 5]  788 	rts
                            789 	.globl	_Display_LevelAdvancement
   02E6                     790 _Display_LevelAdvancement:
   02E6 32 7D         [ 5]  791 	leas	-3,s
   02E8 E7 62         [ 5]  792 	stb	2,s
   02EA 20 08         [ 3]  793 	bra	L17
   02EC                     794 L19:
   02EC F6`00`00      [ 5]  795 	ldb	_buttonspressedcounter
   02EF EB 62         [ 5]  796 	addb	2,s
   02F1 BD`00`00      [ 8]  797 	jsr	_draw_round_advancement_cross
   02F4                     798 L17:
   02F4 E6 62         [ 5]  799 	ldb	2,s
   02F6 E7 61         [ 5]  800 	stb	1,s
   02F8 6D 61         [ 7]  801 	tst	1,s
   02FA 27 04         [ 3]  802 	beq	L18
   02FC C6 01         [ 2]  803 	ldb	#1
   02FE E7 61         [ 5]  804 	stb	1,s
   0300                     805 L18:
   0300 E6 61         [ 5]  806 	ldb	1,s
   0302 6A 62         [ 7]  807 	dec	2,s
   0304 5D            [ 2]  808 	tstb
   0305 26 E5         [ 3]  809 	bne	L19
   0307 20 05         [ 3]  810 	bra	L20
   0309                     811 L22:
   0309 E6 65         [ 5]  812 	ldb	5,s
   030B BD`00`00      [ 8]  813 	jsr	_draw_round_advancement_cross_plus
   030E                     814 L20:
   030E E6 65         [ 5]  815 	ldb	5,s
   0310 E7 E4         [ 4]  816 	stb	,s
   0312 6D E4         [ 6]  817 	tst	,s
   0314 27 04         [ 3]  818 	beq	L21
   0316 C6 01         [ 2]  819 	ldb	#1
   0318 E7 E4         [ 4]  820 	stb	,s
   031A                     821 L21:
   031A E6 E4         [ 4]  822 	ldb	,s
   031C 6A 65         [ 7]  823 	dec	5,s
   031E 5D            [ 2]  824 	tstb
   031F 26 E8         [ 3]  825 	bne	L22
   0321 32 63         [ 5]  826 	leas	3,s
   0323 39            [ 5]  827 	rts
   0324                     828 LC0:
   0324 52 45 4D 45 4D 42   829 	.byte	82,69,77,69,77,66,69,82
        45 52
   032C 20 54 48 45 80 00   830 	.byte	32,84,72,69,-128,0
   0332                     831 LC1:
   0332 53 45 51 55 45 4E   832 	.byte	83,69,81,85,69,78,67,69
        43 45
   033A 80 00               833 	.byte	-128,0
                            834 	.globl	_Display_RandomSequence
   033C                     835 _Display_RandomSequence:
   033C 32 7D         [ 5]  836 	leas	-3,s
   033E 6F 62         [ 7]  837 	clr	2,s
   0340 16 00 97      [ 5]  838 	lbra	L25
   0343                     839 L27:
   0343 C6 C8         [ 2]  840 	ldb	#-56
   0345 F7`00`0A      [ 5]  841 	stb	_counter
   0348 BD`00`00      [ 8]  842 	jsr	___Wait_Recal
   034B BD`00`00      [ 8]  843 	jsr	_Display_Gamefield
   034E C6 B5         [ 2]  844 	ldb	#-75
   0350 E7 E2         [ 6]  845 	stb	,-s
   0352 8E`03`24      [ 3]  846 	ldx	#LC0
   0355 C6 64         [ 2]  847 	ldb	#100
   0357 BD`00`00      [ 8]  848 	jsr	_print_string
   035A 32 61         [ 5]  849 	leas	1,s
   035C C6 CE         [ 2]  850 	ldb	#-50
   035E E7 E2         [ 6]  851 	stb	,-s
   0360 8E`03`32      [ 3]  852 	ldx	#LC1
   0363 C6 50         [ 2]  853 	ldb	#80
   0365 BD`00`00      [ 8]  854 	jsr	_print_string
   0368 32 61         [ 5]  855 	leas	1,s
   036A BD`03`E7      [ 8]  856 	jsr	_Display_Player
   036D E6 62         [ 5]  857 	ldb	2,s
   036F 4F            [ 2]  858 	clra		;zero_extendqihi: R:b -> R:d
   0370 1F 01         [ 6]  859 	tfr	d,x
   0372 E6 89`00`69   [ 8]  860 	ldb	_a_random,x
   0376 BD`00`00      [ 8]  861 	jsr	_draw_square_filled
   0379 E6 62         [ 5]  862 	ldb	2,s
   037B 5C            [ 2]  863 	incb
   037C 86 64         [ 2]  864 	lda	#100	;umulqihi3
   037E 3D            [11]  865 	mul
                            866 		;movlsbqihi: D->B
   037F 4F            [ 2]  867 	clra		;zero_extendqihi: R:b -> R:d
   0380 ED E4         [ 5]  868 	std	,s
   0382 C6 C8         [ 2]  869 	ldb	#-56
   0384 E7 E2         [ 6]  870 	stb	,-s
   0386 AE 61         [ 6]  871 	ldx	1,s
   0388 C6 01         [ 2]  872 	ldb	#1
   038A BD`00`00      [ 8]  873 	jsr	_play_tune
   038D 32 61         [ 5]  874 	leas	1,s
   038F E6 62         [ 5]  875 	ldb	2,s
   0391 5C            [ 2]  876 	incb
   0392 86 64         [ 2]  877 	lda	#100	;umulqihi3
   0394 3D            [11]  878 	mul
                            879 		;movlsbqihi: D->B
   0395 4F            [ 2]  880 	clra		;zero_extendqihi: R:b -> R:d
   0396 ED E4         [ 5]  881 	std	,s
   0398 C6 C8         [ 2]  882 	ldb	#-56
   039A E7 E2         [ 6]  883 	stb	,-s
   039C AE 61         [ 6]  884 	ldx	1,s
   039E C6 02         [ 2]  885 	ldb	#2
   03A0 BD`00`00      [ 8]  886 	jsr	_play_tune
   03A3 32 61         [ 5]  887 	leas	1,s
   03A5 E6 62         [ 5]  888 	ldb	2,s
   03A7 5C            [ 2]  889 	incb
   03A8 86 64         [ 2]  890 	lda	#100	;umulqihi3
   03AA 3D            [11]  891 	mul
                            892 		;movlsbqihi: D->B
   03AB 4F            [ 2]  893 	clra		;zero_extendqihi: R:b -> R:d
   03AC ED E4         [ 5]  894 	std	,s
   03AE C6 C8         [ 2]  895 	ldb	#-56
   03B0 E7 E2         [ 6]  896 	stb	,-s
   03B2 AE 61         [ 6]  897 	ldx	1,s
   03B4 C6 03         [ 2]  898 	ldb	#3
   03B6 BD`00`00      [ 8]  899 	jsr	_play_tune
   03B9 32 61         [ 5]  900 	leas	1,s
   03BB 6F E2         [ 8]  901 	clr	,-s
   03BD E6 63         [ 5]  902 	ldb	3,s
   03BF BD`02`E6      [ 8]  903 	jsr	_Display_LevelAdvancement
   03C2 32 61         [ 5]  904 	leas	1,s
   03C4                     905 L26:
   03C4 F6`00`03      [ 5]  906 	ldb	_RandomSequenceCounter
   03C7 5A            [ 2]  907 	decb
   03C8 F7`00`03      [ 5]  908 	stb	_RandomSequenceCounter
   03CB F6`00`03      [ 5]  909 	ldb	_RandomSequenceCounter
   03CE 5D            [ 2]  910 	tstb
   03CF 10 26 FF 70   [ 6]  911 	lbne	L27
   03D3 C6 1E         [ 2]  912 	ldb	#30
   03D5 F7`00`03      [ 5]  913 	stb	_RandomSequenceCounter
   03D8 6C 62         [ 7]  914 	inc	2,s
   03DA                     915 L25:
   03DA F6`00`04      [ 5]  916 	ldb	_RandomSequenceCounterDisplay
   03DD E1 62         [ 5]  917 	cmpb	2,s	;cmpqi:(R)
   03DF 22 E3         [ 3]  918 	bhi	L26
   03E1 7F`00`09      [ 7]  919 	clr	_SequenceTime
   03E4 32 63         [ 5]  920 	leas	3,s
   03E6 39            [ 5]  921 	rts
                            922 	.globl	_Display_Player
   03E7                     923 _Display_Player:
   03E7 BE`00`11      [ 6]  924 	ldx	_Displayed_Squares+2
   03EA 5F            [ 2]  925 	clrb
   03EB AD 84         [ 7]  926 	jsr	,x
   03ED BE`00`1B      [ 6]  927 	ldx	_Displayed_Squares+12
   03F0 C6 01         [ 2]  928 	ldb	#1
   03F2 AD 84         [ 7]  929 	jsr	,x
   03F4 BE`00`25      [ 6]  930 	ldx	_Displayed_Squares+22
   03F7 C6 02         [ 2]  931 	ldb	#2
   03F9 AD 84         [ 7]  932 	jsr	,x
   03FB BE`00`2F      [ 6]  933 	ldx	_Displayed_Squares+32
   03FE C6 03         [ 2]  934 	ldb	#3
   0400 AD 84         [ 7]  935 	jsr	,x
   0402 BE`00`39      [ 6]  936 	ldx	_Displayed_Squares+42
   0405 C6 04         [ 2]  937 	ldb	#4
   0407 AD 84         [ 7]  938 	jsr	,x
   0409 BE`00`43      [ 6]  939 	ldx	_Displayed_Squares+52
   040C C6 05         [ 2]  940 	ldb	#5
   040E AD 84         [ 7]  941 	jsr	,x
   0410 BE`00`4D      [ 6]  942 	ldx	_Displayed_Squares+62
   0413 C6 06         [ 2]  943 	ldb	#6
   0415 AD 84         [ 7]  944 	jsr	,x
   0417 BE`00`57      [ 6]  945 	ldx	_Displayed_Squares+72
   041A C6 07         [ 2]  946 	ldb	#7
   041C AD 84         [ 7]  947 	jsr	,x
   041E BE`00`61      [ 6]  948 	ldx	_Displayed_Squares+82
   0421 C6 08         [ 2]  949 	ldb	#8
   0423 AD 84         [ 7]  950 	jsr	,x
   0425 39            [ 5]  951 	rts
   0426                     952 LC2:
   0426 47 41 4D 45 20 4F   953 	.byte	71,65,77,69,32,79,86,69
        56 45
   042E 52 80 00            954 	.byte	82,-128,0
   0431                     955 LC3:
   0431 50 52 45 53 53 20   956 	.byte	80,82,69,83,83,32,66,85
        42 55
   0439 54 54 4F 4E 20 32   957 	.byte	84,84,79,78,32,50,-128,0
        80 00
   0441                     958 LC4:
   0441 54 4F 20 52 45 53   959 	.byte	84,79,32,82,69,83,84,65
        54 41
   0449 52 54 80 00         960 	.byte	82,84,-128,0
   044D                     961 LC5:
   044D 50 52 45 53 53 20   962 	.byte	80,82,69,83,83,32,66,85
        42 55
   0455 54 54 4F 4E 20 33   963 	.byte	84,84,79,78,32,51,-128,0
        80 00
   045D                     964 LC6:
   045D 54 4F 20 47 4F 20   965 	.byte	84,79,32,71,79,32,84,79
        54 4F
   0465 20 54 48 45 20 4D   966 	.byte	32,84,72,69,32,77,69,78
        45 4E
   046D 55 80 00            967 	.byte	85,-128,0
                            968 	.globl	_display_game_over
   0470                     969 _display_game_over:
   0470 32 7E         [ 5]  970 	leas	-2,s
   0472 C6 C4         [ 2]  971 	ldb	#-60
   0474 E7 E2         [ 6]  972 	stb	,-s
   0476 8E`04`26      [ 3]  973 	ldx	#LC2
   0479 C6 64         [ 2]  974 	ldb	#100
   047B BD`00`00      [ 8]  975 	jsr	_print_string
   047E 32 61         [ 5]  976 	leas	1,s
   0480 C6 B0         [ 2]  977 	ldb	#-80
   0482 E7 E2         [ 6]  978 	stb	,-s
   0484 8E`04`31      [ 3]  979 	ldx	#LC3
   0487 C6 46         [ 2]  980 	ldb	#70
   0489 BD`00`00      [ 8]  981 	jsr	_print_string
   048C 32 61         [ 5]  982 	leas	1,s
   048E C6 C4         [ 2]  983 	ldb	#-60
   0490 E7 E2         [ 6]  984 	stb	,-s
   0492 8E`04`41      [ 3]  985 	ldx	#LC4
   0495 C6 32         [ 2]  986 	ldb	#50
   0497 BD`00`00      [ 8]  987 	jsr	_print_string
   049A 32 61         [ 5]  988 	leas	1,s
   049C C6 B0         [ 2]  989 	ldb	#-80
   049E E7 E2         [ 6]  990 	stb	,-s
   04A0 8E`04`4D      [ 3]  991 	ldx	#LC5
   04A3 C6 14         [ 2]  992 	ldb	#20
   04A5 BD`00`00      [ 8]  993 	jsr	_print_string
   04A8 32 61         [ 5]  994 	leas	1,s
   04AA C6 9C         [ 2]  995 	ldb	#-100
   04AC E7 E2         [ 6]  996 	stb	,-s
   04AE 8E`04`5D      [ 3]  997 	ldx	#LC6
   04B1 5F            [ 2]  998 	clrb
   04B2 BD`00`00      [ 8]  999 	jsr	_print_string
   04B5 32 61         [ 5] 1000 	leas	1,s
   04B7 F6`00`02      [ 5] 1001 	ldb	_b
   04BA C1 02         [ 2] 1002 	cmpb	#2	;cmpqi:
   04BC 26 06         [ 3] 1003 	bne	L33
   04BE F6`00`00      [ 5] 1004 	ldb	_buttonspressedcounter
   04C1 F7`00`05      [ 5] 1005 	stb	_HighscoreNormal
   04C4                    1006 L33:
   04C4 F6`00`02      [ 5] 1007 	ldb	_b
   04C7 C1 03         [ 2] 1008 	cmpb	#3	;cmpqi:
   04C9 26 06         [ 3] 1009 	bne	L34
   04CB F6`00`00      [ 5] 1010 	ldb	_buttonspressedcounter
   04CE F7`00`06      [ 5] 1011 	stb	_HighscoreHard
   04D1                    1012 L34:
   04D1 F6`00`02      [ 5] 1013 	ldb	_b
   04D4 C1 04         [ 2] 1014 	cmpb	#4	;cmpqi:
   04D6 26 06         [ 3] 1015 	bne	L35
   04D8 F6`00`00      [ 5] 1016 	ldb	_buttonspressedcounter
   04DB F7`00`07      [ 5] 1017 	stb	_HighscoreExtrem
   04DE                    1018 L35:
   04DE BD`00`00      [ 8] 1019 	jsr	___Read_Btns
   04E1 F6`00`00      [ 5] 1020 	ldb	_Vec_Buttons
   04E4 C4 02         [ 2] 1021 	andb	#2
   04E6 5D            [ 2] 1022 	tstb
   04E7 27 29         [ 3] 1023 	beq	L36
   04E9 8E`11`B8      [ 3] 1024 	ldx	#_execute_display_sequence_state
   04EC BF`00`00      [ 6] 1025 	stx	_execute_game_playing_state
   04EF 6F E4         [ 6] 1026 	clr	,s
   04F1 20 0B         [ 3] 1027 	bra	L37
   04F3                    1028 L38:
   04F3 E6 E4         [ 4] 1029 	ldb	,s
   04F5 1D            [ 2] 1030 	sex		;extendqihi2: R:b -> R:d
   04F6 1F 01         [ 6] 1031 	tfr	d,x
   04F8 6F 89`00`7D   [10] 1032 	clr	_a_random_compare,x
   04FC 6C E4         [ 6] 1033 	inc	,s
   04FE                    1034 L37:
   04FE E6 E4         [ 4] 1035 	ldb	,s
   0500 C1 13         [ 2] 1036 	cmpb	#19	;cmpqi:
   0502 2F EF         [ 3] 1037 	ble	L38
   0504 F6`00`04      [ 5] 1038 	ldb	_RandomSequenceCounterDisplay
   0507 BD`01`EC      [ 8] 1039 	jsr	_rand
   050A 7F`00`00      [ 7] 1040 	clr	_buttonspressedcounter
   050D C6 01         [ 2] 1041 	ldb	#1
   050F F7`00`04      [ 5] 1042 	stb	_RandomSequenceCounterDisplay
   0512                    1043 L36:
   0512 F6`00`00      [ 5] 1044 	ldb	_Vec_Buttons
   0515 C4 04         [ 2] 1045 	andb	#4
   0517 5D            [ 2] 1046 	tstb
   0518 27 2C         [ 3] 1047 	beq	L42
   051A 8E`11`FE      [ 3] 1048 	ldx	#_level_init
   051D BF`00`00      [ 6] 1049 	stx	_execute_game_playing_state
   0520 7F`00`02      [ 7] 1050 	clr	_b
   0523 6F 61         [ 7] 1051 	clr	1,s
   0525 20 0B         [ 3] 1052 	bra	L40
   0527                    1053 L41:
   0527 E6 61         [ 5] 1054 	ldb	1,s
   0529 1D            [ 2] 1055 	sex		;extendqihi2: R:b -> R:d
   052A 1F 01         [ 6] 1056 	tfr	d,x
   052C 6F 89`00`7D   [10] 1057 	clr	_a_random_compare,x
   0530 6C 61         [ 7] 1058 	inc	1,s
   0532                    1059 L40:
   0532 E6 61         [ 5] 1060 	ldb	1,s
   0534 C1 13         [ 2] 1061 	cmpb	#19	;cmpqi:
   0536 2F EF         [ 3] 1062 	ble	L41
   0538 F6`00`04      [ 5] 1063 	ldb	_RandomSequenceCounterDisplay
   053B BD`01`EC      [ 8] 1064 	jsr	_rand
   053E 7F`00`00      [ 7] 1065 	clr	_buttonspressedcounter
   0541 C6 01         [ 2] 1066 	ldb	#1
   0543 F7`00`04      [ 5] 1067 	stb	_RandomSequenceCounterDisplay
   0546                    1068 L42:
   0546 32 62         [ 5] 1069 	leas	2,s
   0548 39            [ 5] 1070 	rts
                           1071 	.globl	_move_player
   0549                    1072 _move_player:
   0549 34 20         [ 6] 1073 	pshs	y
   054B 32 E8 C7      [ 5] 1074 	leas	-57,s
   054E BD`00`00      [ 8] 1075 	jsr	___Joy_Digital
   0551 F6`00`00      [ 5] 1076 	ldb	_Vec_Joy_1_X
   0554 F7`00`0B      [ 5] 1077 	stb	_joy_x
   0557 F6`00`00      [ 5] 1078 	ldb	_Vec_Joy_1_Y
   055A F7`00`0C      [ 5] 1079 	stb	_joy_y
   055D F6`00`0B      [ 5] 1080 	ldb	_joy_x
   0560 5D            [ 2] 1081 	tstb
   0561 2C 52         [ 3] 1082 	bge	L44
   0563 F6`00`0C      [ 5] 1083 	ldb	_joy_y
   0566 5D            [ 2] 1084 	tstb
   0567 2F 4C         [ 3] 1085 	ble	L44
   0569 F6`00`01      [ 5] 1086 	ldb	_sneakyoffset
   056C E7 E8 27      [ 5] 1087 	stb	39,s
   056F E6 E8 27      [ 5] 1088 	ldb	39,s
   0572 4F            [ 2] 1089 	clra		;zero_extendqihi: R:b -> R:d
   0573 1F 01         [ 6] 1090 	tfr	d,x
   0575 AF E8 25      [ 6] 1091 	stx	37,s
   0578 EC E8 25      [ 6] 1092 	ldd	37,s
   057B 58            [ 2] 1093 	aslb
   057C 49            [ 2] 1094 	rola
   057D 58            [ 2] 1095 	aslb
   057E 49            [ 2] 1096 	rola
   057F ED E8 25      [ 6] 1097 	std	37,s
   0582 EC E8 25      [ 6] 1098 	ldd	37,s
   0585 30 8B         [ 8] 1099 	leax	d,x
   0587 AF E8 25      [ 6] 1100 	stx	37,s
   058A EC E8 25      [ 6] 1101 	ldd	37,s
   058D C3 00 01      [ 4] 1102 	addd	#1; addhi3,3
   0590 58            [ 2] 1103 	aslb
   0591 49            [ 2] 1104 	rola
   0592 8E`00`0F      [ 3] 1105 	ldx	#_Displayed_Squares
   0595 31 8B         [ 8] 1106 	leay	d,x
   0597 8E`00`00      [ 3] 1107 	ldx	#_draw_square_filled
   059A AF A4         [ 5] 1108 	stx	,y
   059C E6 E8 27      [ 5] 1109 	ldb	39,s
   059F 4F            [ 2] 1110 	clra		;zero_extendqihi: R:b -> R:d
   05A0 1F 02         [ 6] 1111 	tfr	d,y
   05A2 10 AF E4      [ 6] 1112 	sty	,s
   05A5 EC E4         [ 5] 1113 	ldd	,s
   05A7 58            [ 2] 1114 	aslb
   05A8 49            [ 2] 1115 	rola
   05A9 58            [ 2] 1116 	aslb
   05AA 49            [ 2] 1117 	rola
   05AB 1F 01         [ 6] 1118 	tfr	d,x
   05AD AF E4         [ 5] 1119 	stx	,s
   05AF EC E4         [ 5] 1120 	ldd	,s
   05B1 31 AB         [ 8] 1121 	leay	d,y
   05B3 20 4A         [ 3] 1122 	bra	L45
   05B5                    1123 L44:
   05B5 F6`00`01      [ 5] 1124 	ldb	_sneakyoffset
   05B8 E7 E8 28      [ 5] 1125 	stb	40,s
   05BB E6 E8 28      [ 5] 1126 	ldb	40,s
   05BE 4F            [ 2] 1127 	clra		;zero_extendqihi: R:b -> R:d
   05BF 1F 01         [ 6] 1128 	tfr	d,x
   05C1 AF E8 23      [ 6] 1129 	stx	35,s
   05C4 EC E8 23      [ 6] 1130 	ldd	35,s
   05C7 58            [ 2] 1131 	aslb
   05C8 49            [ 2] 1132 	rola
   05C9 58            [ 2] 1133 	aslb
   05CA 49            [ 2] 1134 	rola
   05CB ED E8 23      [ 6] 1135 	std	35,s
   05CE EC E8 23      [ 6] 1136 	ldd	35,s
   05D1 30 8B         [ 8] 1137 	leax	d,x
   05D3 AF E8 23      [ 6] 1138 	stx	35,s
   05D6 EC E8 23      [ 6] 1139 	ldd	35,s
   05D9 C3 00 01      [ 4] 1140 	addd	#1; addhi3,3
   05DC 58            [ 2] 1141 	aslb
   05DD 49            [ 2] 1142 	rola
   05DE 8E`00`0F      [ 3] 1143 	ldx	#_Displayed_Squares
   05E1 31 8B         [ 8] 1144 	leay	d,x
   05E3 8E`00`00      [ 3] 1145 	ldx	#_draw_square
   05E6 AF A4         [ 5] 1146 	stx	,y
   05E8 E6 E8 28      [ 5] 1147 	ldb	40,s
   05EB 4F            [ 2] 1148 	clra		;zero_extendqihi: R:b -> R:d
   05EC 1F 02         [ 6] 1149 	tfr	d,y
   05EE 10 AF E4      [ 6] 1150 	sty	,s
   05F1 EC E4         [ 5] 1151 	ldd	,s
   05F3 58            [ 2] 1152 	aslb
   05F4 49            [ 2] 1153 	rola
   05F5 58            [ 2] 1154 	aslb
   05F6 49            [ 2] 1155 	rola
   05F7 1F 01         [ 6] 1156 	tfr	d,x
   05F9 AF E4         [ 5] 1157 	stx	,s
   05FB EC E4         [ 5] 1158 	ldd	,s
   05FD 31 AB         [ 8] 1159 	leay	d,y
   05FF                    1160 L45:
   05FF F6`00`0B      [ 5] 1161 	ldb	_joy_x
   0602 5D            [ 2] 1162 	tstb
   0603 26 57         [ 3] 1163 	bne	L46
   0605 F6`00`0C      [ 5] 1164 	ldb	_joy_y
   0608 5D            [ 2] 1165 	tstb
   0609 2F 51         [ 3] 1166 	ble	L46
   060B F6`00`01      [ 5] 1167 	ldb	_sneakyoffset
   060E E7 62         [ 5] 1168 	stb	2,s
   0610 E6 62         [ 5] 1169 	ldb	2,s
   0612 5C            [ 2] 1170 	incb
   0613 E7 E8 29      [ 5] 1171 	stb	41,s
   0616 E6 E8 29      [ 5] 1172 	ldb	41,s
   0619 4F            [ 2] 1173 	clra		;zero_extendqihi: R:b -> R:d
   061A 1F 01         [ 6] 1174 	tfr	d,x
   061C AF E8 21      [ 6] 1175 	stx	33,s
   061F EC E8 21      [ 6] 1176 	ldd	33,s
   0622 58            [ 2] 1177 	aslb
   0623 49            [ 2] 1178 	rola
   0624 58            [ 2] 1179 	aslb
   0625 49            [ 2] 1180 	rola
   0626 ED E8 21      [ 6] 1181 	std	33,s
   0629 EC E8 21      [ 6] 1182 	ldd	33,s
   062C 30 8B         [ 8] 1183 	leax	d,x
   062E AF E8 21      [ 6] 1184 	stx	33,s
   0631 EC E8 21      [ 6] 1185 	ldd	33,s
   0634 C3 00 01      [ 4] 1186 	addd	#1; addhi3,3
   0637 58            [ 2] 1187 	aslb
   0638 49            [ 2] 1188 	rola
   0639 8E`00`0F      [ 3] 1189 	ldx	#_Displayed_Squares
   063C 31 8B         [ 8] 1190 	leay	d,x
   063E 8E`00`00      [ 3] 1191 	ldx	#_draw_square_filled
   0641 AF A4         [ 5] 1192 	stx	,y
   0643 E6 E8 29      [ 5] 1193 	ldb	41,s
   0646 4F            [ 2] 1194 	clra		;zero_extendqihi: R:b -> R:d
   0647 1F 02         [ 6] 1195 	tfr	d,y
   0649 10 AF E4      [ 6] 1196 	sty	,s
   064C EC E4         [ 5] 1197 	ldd	,s
   064E 58            [ 2] 1198 	aslb
   064F 49            [ 2] 1199 	rola
   0650 58            [ 2] 1200 	aslb
   0651 49            [ 2] 1201 	rola
   0652 1F 01         [ 6] 1202 	tfr	d,x
   0654 AF E4         [ 5] 1203 	stx	,s
   0656 EC E4         [ 5] 1204 	ldd	,s
   0658 31 AB         [ 8] 1205 	leay	d,y
   065A 20 4F         [ 3] 1206 	bra	L47
   065C                    1207 L46:
   065C F6`00`01      [ 5] 1208 	ldb	_sneakyoffset
   065F E7 62         [ 5] 1209 	stb	2,s
   0661 E6 62         [ 5] 1210 	ldb	2,s
   0663 5C            [ 2] 1211 	incb
   0664 E7 E8 2A      [ 5] 1212 	stb	42,s
   0667 E6 E8 2A      [ 5] 1213 	ldb	42,s
   066A 4F            [ 2] 1214 	clra		;zero_extendqihi: R:b -> R:d
   066B 1F 01         [ 6] 1215 	tfr	d,x
   066D AF E8 1F      [ 6] 1216 	stx	31,s
   0670 EC E8 1F      [ 6] 1217 	ldd	31,s
   0673 58            [ 2] 1218 	aslb
   0674 49            [ 2] 1219 	rola
   0675 58            [ 2] 1220 	aslb
   0676 49            [ 2] 1221 	rola
   0677 ED E8 1F      [ 6] 1222 	std	31,s
   067A EC E8 1F      [ 6] 1223 	ldd	31,s
   067D 30 8B         [ 8] 1224 	leax	d,x
   067F AF E8 1F      [ 6] 1225 	stx	31,s
   0682 EC E8 1F      [ 6] 1226 	ldd	31,s
   0685 C3 00 01      [ 4] 1227 	addd	#1; addhi3,3
   0688 58            [ 2] 1228 	aslb
   0689 49            [ 2] 1229 	rola
   068A 8E`00`0F      [ 3] 1230 	ldx	#_Displayed_Squares
   068D 31 8B         [ 8] 1231 	leay	d,x
   068F 8E`00`00      [ 3] 1232 	ldx	#_draw_square
   0692 AF A4         [ 5] 1233 	stx	,y
   0694 E6 E8 2A      [ 5] 1234 	ldb	42,s
   0697 4F            [ 2] 1235 	clra		;zero_extendqihi: R:b -> R:d
   0698 1F 02         [ 6] 1236 	tfr	d,y
   069A 10 AF E4      [ 6] 1237 	sty	,s
   069D EC E4         [ 5] 1238 	ldd	,s
   069F 58            [ 2] 1239 	aslb
   06A0 49            [ 2] 1240 	rola
   06A1 58            [ 2] 1241 	aslb
   06A2 49            [ 2] 1242 	rola
   06A3 1F 01         [ 6] 1243 	tfr	d,x
   06A5 AF E4         [ 5] 1244 	stx	,s
   06A7 EC E4         [ 5] 1245 	ldd	,s
   06A9 31 AB         [ 8] 1246 	leay	d,y
   06AB                    1247 L47:
   06AB F6`00`0B      [ 5] 1248 	ldb	_joy_x
   06AE 5D            [ 2] 1249 	tstb
   06AF 2F 58         [ 3] 1250 	ble	L48
   06B1 F6`00`0C      [ 5] 1251 	ldb	_joy_y
   06B4 5D            [ 2] 1252 	tstb
   06B5 2F 52         [ 3] 1253 	ble	L48
   06B7 F6`00`01      [ 5] 1254 	ldb	_sneakyoffset
   06BA E7 62         [ 5] 1255 	stb	2,s
   06BC E6 62         [ 5] 1256 	ldb	2,s
   06BE CB 02         [ 2] 1257 	addb	#2
   06C0 E7 E8 2B      [ 5] 1258 	stb	43,s
   06C3 E6 E8 2B      [ 5] 1259 	ldb	43,s
   06C6 4F            [ 2] 1260 	clra		;zero_extendqihi: R:b -> R:d
   06C7 1F 01         [ 6] 1261 	tfr	d,x
   06C9 AF E8 1D      [ 6] 1262 	stx	29,s
   06CC EC E8 1D      [ 6] 1263 	ldd	29,s
   06CF 58            [ 2] 1264 	aslb
   06D0 49            [ 2] 1265 	rola
   06D1 58            [ 2] 1266 	aslb
   06D2 49            [ 2] 1267 	rola
   06D3 ED E8 1D      [ 6] 1268 	std	29,s
   06D6 EC E8 1D      [ 6] 1269 	ldd	29,s
   06D9 30 8B         [ 8] 1270 	leax	d,x
   06DB AF E8 1D      [ 6] 1271 	stx	29,s
   06DE EC E8 1D      [ 6] 1272 	ldd	29,s
   06E1 C3 00 01      [ 4] 1273 	addd	#1; addhi3,3
   06E4 58            [ 2] 1274 	aslb
   06E5 49            [ 2] 1275 	rola
   06E6 8E`00`0F      [ 3] 1276 	ldx	#_Displayed_Squares
   06E9 31 8B         [ 8] 1277 	leay	d,x
   06EB 8E`00`00      [ 3] 1278 	ldx	#_draw_square_filled
   06EE AF A4         [ 5] 1279 	stx	,y
   06F0 E6 E8 2B      [ 5] 1280 	ldb	43,s
   06F3 4F            [ 2] 1281 	clra		;zero_extendqihi: R:b -> R:d
   06F4 1F 02         [ 6] 1282 	tfr	d,y
   06F6 10 AF E4      [ 6] 1283 	sty	,s
   06F9 EC E4         [ 5] 1284 	ldd	,s
   06FB 58            [ 2] 1285 	aslb
   06FC 49            [ 2] 1286 	rola
   06FD 58            [ 2] 1287 	aslb
   06FE 49            [ 2] 1288 	rola
   06FF 1F 01         [ 6] 1289 	tfr	d,x
   0701 AF E4         [ 5] 1290 	stx	,s
   0703 EC E4         [ 5] 1291 	ldd	,s
   0705 31 AB         [ 8] 1292 	leay	d,y
   0707 20 50         [ 3] 1293 	bra	L49
   0709                    1294 L48:
   0709 F6`00`01      [ 5] 1295 	ldb	_sneakyoffset
   070C E7 62         [ 5] 1296 	stb	2,s
   070E E6 62         [ 5] 1297 	ldb	2,s
   0710 CB 02         [ 2] 1298 	addb	#2
   0712 E7 E8 2C      [ 5] 1299 	stb	44,s
   0715 E6 E8 2C      [ 5] 1300 	ldb	44,s
   0718 4F            [ 2] 1301 	clra		;zero_extendqihi: R:b -> R:d
   0719 1F 01         [ 6] 1302 	tfr	d,x
   071B AF E8 1B      [ 6] 1303 	stx	27,s
   071E EC E8 1B      [ 6] 1304 	ldd	27,s
   0721 58            [ 2] 1305 	aslb
   0722 49            [ 2] 1306 	rola
   0723 58            [ 2] 1307 	aslb
   0724 49            [ 2] 1308 	rola
   0725 ED E8 1B      [ 6] 1309 	std	27,s
   0728 EC E8 1B      [ 6] 1310 	ldd	27,s
   072B 30 8B         [ 8] 1311 	leax	d,x
   072D AF E8 1B      [ 6] 1312 	stx	27,s
   0730 EC E8 1B      [ 6] 1313 	ldd	27,s
   0733 C3 00 01      [ 4] 1314 	addd	#1; addhi3,3
   0736 58            [ 2] 1315 	aslb
   0737 49            [ 2] 1316 	rola
   0738 8E`00`0F      [ 3] 1317 	ldx	#_Displayed_Squares
   073B 31 8B         [ 8] 1318 	leay	d,x
   073D 8E`00`00      [ 3] 1319 	ldx	#_draw_square
   0740 AF A4         [ 5] 1320 	stx	,y
   0742 E6 E8 2C      [ 5] 1321 	ldb	44,s
   0745 4F            [ 2] 1322 	clra		;zero_extendqihi: R:b -> R:d
   0746 1F 02         [ 6] 1323 	tfr	d,y
   0748 10 AF E4      [ 6] 1324 	sty	,s
   074B EC E4         [ 5] 1325 	ldd	,s
   074D 58            [ 2] 1326 	aslb
   074E 49            [ 2] 1327 	rola
   074F 58            [ 2] 1328 	aslb
   0750 49            [ 2] 1329 	rola
   0751 1F 01         [ 6] 1330 	tfr	d,x
   0753 AF E4         [ 5] 1331 	stx	,s
   0755 EC E4         [ 5] 1332 	ldd	,s
   0757 31 AB         [ 8] 1333 	leay	d,y
   0759                    1334 L49:
   0759 F6`00`0B      [ 5] 1335 	ldb	_joy_x
   075C 5D            [ 2] 1336 	tstb
   075D 2C 58         [ 3] 1337 	bge	L50
   075F F6`00`0C      [ 5] 1338 	ldb	_joy_y
   0762 5D            [ 2] 1339 	tstb
   0763 26 52         [ 3] 1340 	bne	L50
   0765 F6`00`01      [ 5] 1341 	ldb	_sneakyoffset
   0768 E7 62         [ 5] 1342 	stb	2,s
   076A E6 62         [ 5] 1343 	ldb	2,s
   076C CB 03         [ 2] 1344 	addb	#3
   076E E7 E8 2D      [ 5] 1345 	stb	45,s
   0771 E6 E8 2D      [ 5] 1346 	ldb	45,s
   0774 4F            [ 2] 1347 	clra		;zero_extendqihi: R:b -> R:d
   0775 1F 01         [ 6] 1348 	tfr	d,x
   0777 AF E8 19      [ 6] 1349 	stx	25,s
   077A EC E8 19      [ 6] 1350 	ldd	25,s
   077D 58            [ 2] 1351 	aslb
   077E 49            [ 2] 1352 	rola
   077F 58            [ 2] 1353 	aslb
   0780 49            [ 2] 1354 	rola
   0781 ED E8 19      [ 6] 1355 	std	25,s
   0784 EC E8 19      [ 6] 1356 	ldd	25,s
   0787 30 8B         [ 8] 1357 	leax	d,x
   0789 AF E8 19      [ 6] 1358 	stx	25,s
   078C EC E8 19      [ 6] 1359 	ldd	25,s
   078F C3 00 01      [ 4] 1360 	addd	#1; addhi3,3
   0792 58            [ 2] 1361 	aslb
   0793 49            [ 2] 1362 	rola
   0794 8E`00`0F      [ 3] 1363 	ldx	#_Displayed_Squares
   0797 31 8B         [ 8] 1364 	leay	d,x
   0799 8E`00`00      [ 3] 1365 	ldx	#_draw_square_filled
   079C AF A4         [ 5] 1366 	stx	,y
   079E E6 E8 2D      [ 5] 1367 	ldb	45,s
   07A1 4F            [ 2] 1368 	clra		;zero_extendqihi: R:b -> R:d
   07A2 1F 02         [ 6] 1369 	tfr	d,y
   07A4 10 AF E4      [ 6] 1370 	sty	,s
   07A7 EC E4         [ 5] 1371 	ldd	,s
   07A9 58            [ 2] 1372 	aslb
   07AA 49            [ 2] 1373 	rola
   07AB 58            [ 2] 1374 	aslb
   07AC 49            [ 2] 1375 	rola
   07AD 1F 01         [ 6] 1376 	tfr	d,x
   07AF AF E4         [ 5] 1377 	stx	,s
   07B1 EC E4         [ 5] 1378 	ldd	,s
   07B3 31 AB         [ 8] 1379 	leay	d,y
   07B5 20 50         [ 3] 1380 	bra	L51
   07B7                    1381 L50:
   07B7 F6`00`01      [ 5] 1382 	ldb	_sneakyoffset
   07BA E7 62         [ 5] 1383 	stb	2,s
   07BC E6 62         [ 5] 1384 	ldb	2,s
   07BE CB 03         [ 2] 1385 	addb	#3
   07C0 E7 E8 2E      [ 5] 1386 	stb	46,s
   07C3 E6 E8 2E      [ 5] 1387 	ldb	46,s
   07C6 4F            [ 2] 1388 	clra		;zero_extendqihi: R:b -> R:d
   07C7 1F 01         [ 6] 1389 	tfr	d,x
   07C9 AF E8 17      [ 6] 1390 	stx	23,s
   07CC EC E8 17      [ 6] 1391 	ldd	23,s
   07CF 58            [ 2] 1392 	aslb
   07D0 49            [ 2] 1393 	rola
   07D1 58            [ 2] 1394 	aslb
   07D2 49            [ 2] 1395 	rola
   07D3 ED E8 17      [ 6] 1396 	std	23,s
   07D6 EC E8 17      [ 6] 1397 	ldd	23,s
   07D9 30 8B         [ 8] 1398 	leax	d,x
   07DB AF E8 17      [ 6] 1399 	stx	23,s
   07DE EC E8 17      [ 6] 1400 	ldd	23,s
   07E1 C3 00 01      [ 4] 1401 	addd	#1; addhi3,3
   07E4 58            [ 2] 1402 	aslb
   07E5 49            [ 2] 1403 	rola
   07E6 8E`00`0F      [ 3] 1404 	ldx	#_Displayed_Squares
   07E9 31 8B         [ 8] 1405 	leay	d,x
   07EB 8E`00`00      [ 3] 1406 	ldx	#_draw_square
   07EE AF A4         [ 5] 1407 	stx	,y
   07F0 E6 E8 2E      [ 5] 1408 	ldb	46,s
   07F3 4F            [ 2] 1409 	clra		;zero_extendqihi: R:b -> R:d
   07F4 1F 02         [ 6] 1410 	tfr	d,y
   07F6 10 AF E4      [ 6] 1411 	sty	,s
   07F9 EC E4         [ 5] 1412 	ldd	,s
   07FB 58            [ 2] 1413 	aslb
   07FC 49            [ 2] 1414 	rola
   07FD 58            [ 2] 1415 	aslb
   07FE 49            [ 2] 1416 	rola
   07FF 1F 01         [ 6] 1417 	tfr	d,x
   0801 AF E4         [ 5] 1418 	stx	,s
   0803 EC E4         [ 5] 1419 	ldd	,s
   0805 31 AB         [ 8] 1420 	leay	d,y
   0807                    1421 L51:
   0807 F6`00`0B      [ 5] 1422 	ldb	_joy_x
   080A 5D            [ 2] 1423 	tstb
   080B 26 58         [ 3] 1424 	bne	L52
   080D F6`00`0C      [ 5] 1425 	ldb	_joy_y
   0810 5D            [ 2] 1426 	tstb
   0811 26 52         [ 3] 1427 	bne	L52
   0813 F6`00`01      [ 5] 1428 	ldb	_sneakyoffset
   0816 E7 62         [ 5] 1429 	stb	2,s
   0818 E6 62         [ 5] 1430 	ldb	2,s
   081A CB 04         [ 2] 1431 	addb	#4
   081C E7 E8 2F      [ 5] 1432 	stb	47,s
   081F E6 E8 2F      [ 5] 1433 	ldb	47,s
   0822 4F            [ 2] 1434 	clra		;zero_extendqihi: R:b -> R:d
   0823 1F 01         [ 6] 1435 	tfr	d,x
   0825 AF E8 15      [ 6] 1436 	stx	21,s
   0828 EC E8 15      [ 6] 1437 	ldd	21,s
   082B 58            [ 2] 1438 	aslb
   082C 49            [ 2] 1439 	rola
   082D 58            [ 2] 1440 	aslb
   082E 49            [ 2] 1441 	rola
   082F ED E8 15      [ 6] 1442 	std	21,s
   0832 EC E8 15      [ 6] 1443 	ldd	21,s
   0835 30 8B         [ 8] 1444 	leax	d,x
   0837 AF E8 15      [ 6] 1445 	stx	21,s
   083A EC E8 15      [ 6] 1446 	ldd	21,s
   083D C3 00 01      [ 4] 1447 	addd	#1; addhi3,3
   0840 58            [ 2] 1448 	aslb
   0841 49            [ 2] 1449 	rola
   0842 8E`00`0F      [ 3] 1450 	ldx	#_Displayed_Squares
   0845 31 8B         [ 8] 1451 	leay	d,x
   0847 8E`00`00      [ 3] 1452 	ldx	#_draw_square_filled
   084A AF A4         [ 5] 1453 	stx	,y
   084C E6 E8 2F      [ 5] 1454 	ldb	47,s
   084F 4F            [ 2] 1455 	clra		;zero_extendqihi: R:b -> R:d
   0850 1F 02         [ 6] 1456 	tfr	d,y
   0852 10 AF E4      [ 6] 1457 	sty	,s
   0855 EC E4         [ 5] 1458 	ldd	,s
   0857 58            [ 2] 1459 	aslb
   0858 49            [ 2] 1460 	rola
   0859 58            [ 2] 1461 	aslb
   085A 49            [ 2] 1462 	rola
   085B 1F 01         [ 6] 1463 	tfr	d,x
   085D AF E4         [ 5] 1464 	stx	,s
   085F EC E4         [ 5] 1465 	ldd	,s
   0861 31 AB         [ 8] 1466 	leay	d,y
   0863 20 50         [ 3] 1467 	bra	L53
   0865                    1468 L52:
   0865 F6`00`01      [ 5] 1469 	ldb	_sneakyoffset
   0868 E7 62         [ 5] 1470 	stb	2,s
   086A E6 62         [ 5] 1471 	ldb	2,s
   086C CB 04         [ 2] 1472 	addb	#4
   086E E7 E8 30      [ 5] 1473 	stb	48,s
   0871 E6 E8 30      [ 5] 1474 	ldb	48,s
   0874 4F            [ 2] 1475 	clra		;zero_extendqihi: R:b -> R:d
   0875 1F 01         [ 6] 1476 	tfr	d,x
   0877 AF E8 13      [ 6] 1477 	stx	19,s
   087A EC E8 13      [ 6] 1478 	ldd	19,s
   087D 58            [ 2] 1479 	aslb
   087E 49            [ 2] 1480 	rola
   087F 58            [ 2] 1481 	aslb
   0880 49            [ 2] 1482 	rola
   0881 ED E8 13      [ 6] 1483 	std	19,s
   0884 EC E8 13      [ 6] 1484 	ldd	19,s
   0887 30 8B         [ 8] 1485 	leax	d,x
   0889 AF E8 13      [ 6] 1486 	stx	19,s
   088C EC E8 13      [ 6] 1487 	ldd	19,s
   088F C3 00 01      [ 4] 1488 	addd	#1; addhi3,3
   0892 58            [ 2] 1489 	aslb
   0893 49            [ 2] 1490 	rola
   0894 8E`00`0F      [ 3] 1491 	ldx	#_Displayed_Squares
   0897 31 8B         [ 8] 1492 	leay	d,x
   0899 8E`00`00      [ 3] 1493 	ldx	#_draw_square
   089C AF A4         [ 5] 1494 	stx	,y
   089E E6 E8 30      [ 5] 1495 	ldb	48,s
   08A1 4F            [ 2] 1496 	clra		;zero_extendqihi: R:b -> R:d
   08A2 1F 02         [ 6] 1497 	tfr	d,y
   08A4 10 AF E4      [ 6] 1498 	sty	,s
   08A7 EC E4         [ 5] 1499 	ldd	,s
   08A9 58            [ 2] 1500 	aslb
   08AA 49            [ 2] 1501 	rola
   08AB 58            [ 2] 1502 	aslb
   08AC 49            [ 2] 1503 	rola
   08AD 1F 01         [ 6] 1504 	tfr	d,x
   08AF AF E4         [ 5] 1505 	stx	,s
   08B1 EC E4         [ 5] 1506 	ldd	,s
   08B3 31 AB         [ 8] 1507 	leay	d,y
   08B5                    1508 L53:
   08B5 F6`00`0B      [ 5] 1509 	ldb	_joy_x
   08B8 5D            [ 2] 1510 	tstb
   08B9 2F 58         [ 3] 1511 	ble	L54
   08BB F6`00`0C      [ 5] 1512 	ldb	_joy_y
   08BE 5D            [ 2] 1513 	tstb
   08BF 26 52         [ 3] 1514 	bne	L54
   08C1 F6`00`01      [ 5] 1515 	ldb	_sneakyoffset
   08C4 E7 62         [ 5] 1516 	stb	2,s
   08C6 E6 62         [ 5] 1517 	ldb	2,s
   08C8 CB 05         [ 2] 1518 	addb	#5
   08CA E7 E8 31      [ 5] 1519 	stb	49,s
   08CD E6 E8 31      [ 5] 1520 	ldb	49,s
   08D0 4F            [ 2] 1521 	clra		;zero_extendqihi: R:b -> R:d
   08D1 1F 01         [ 6] 1522 	tfr	d,x
   08D3 AF E8 11      [ 6] 1523 	stx	17,s
   08D6 EC E8 11      [ 6] 1524 	ldd	17,s
   08D9 58            [ 2] 1525 	aslb
   08DA 49            [ 2] 1526 	rola
   08DB 58            [ 2] 1527 	aslb
   08DC 49            [ 2] 1528 	rola
   08DD ED E8 11      [ 6] 1529 	std	17,s
   08E0 EC E8 11      [ 6] 1530 	ldd	17,s
   08E3 30 8B         [ 8] 1531 	leax	d,x
   08E5 AF E8 11      [ 6] 1532 	stx	17,s
   08E8 EC E8 11      [ 6] 1533 	ldd	17,s
   08EB C3 00 01      [ 4] 1534 	addd	#1; addhi3,3
   08EE 58            [ 2] 1535 	aslb
   08EF 49            [ 2] 1536 	rola
   08F0 8E`00`0F      [ 3] 1537 	ldx	#_Displayed_Squares
   08F3 31 8B         [ 8] 1538 	leay	d,x
   08F5 8E`00`00      [ 3] 1539 	ldx	#_draw_square_filled
   08F8 AF A4         [ 5] 1540 	stx	,y
   08FA E6 E8 31      [ 5] 1541 	ldb	49,s
   08FD 4F            [ 2] 1542 	clra		;zero_extendqihi: R:b -> R:d
   08FE 1F 02         [ 6] 1543 	tfr	d,y
   0900 10 AF E4      [ 6] 1544 	sty	,s
   0903 EC E4         [ 5] 1545 	ldd	,s
   0905 58            [ 2] 1546 	aslb
   0906 49            [ 2] 1547 	rola
   0907 58            [ 2] 1548 	aslb
   0908 49            [ 2] 1549 	rola
   0909 1F 01         [ 6] 1550 	tfr	d,x
   090B AF E4         [ 5] 1551 	stx	,s
   090D EC E4         [ 5] 1552 	ldd	,s
   090F 31 AB         [ 8] 1553 	leay	d,y
   0911 20 4A         [ 3] 1554 	bra	L55
   0913                    1555 L54:
   0913 F6`00`01      [ 5] 1556 	ldb	_sneakyoffset
   0916 E7 62         [ 5] 1557 	stb	2,s
   0918 E6 62         [ 5] 1558 	ldb	2,s
   091A CB 05         [ 2] 1559 	addb	#5
   091C E7 E8 32      [ 5] 1560 	stb	50,s
   091F E6 E8 32      [ 5] 1561 	ldb	50,s
   0922 4F            [ 2] 1562 	clra		;zero_extendqihi: R:b -> R:d
   0923 1F 01         [ 6] 1563 	tfr	d,x
   0925 AF 6F         [ 6] 1564 	stx	15,s
   0927 EC 6F         [ 6] 1565 	ldd	15,s
   0929 58            [ 2] 1566 	aslb
   092A 49            [ 2] 1567 	rola
   092B 58            [ 2] 1568 	aslb
   092C 49            [ 2] 1569 	rola
   092D ED 6F         [ 6] 1570 	std	15,s
   092F EC 6F         [ 6] 1571 	ldd	15,s
   0931 30 8B         [ 8] 1572 	leax	d,x
   0933 AF 6F         [ 6] 1573 	stx	15,s
   0935 EC 6F         [ 6] 1574 	ldd	15,s
   0937 C3 00 01      [ 4] 1575 	addd	#1; addhi3,3
   093A 58            [ 2] 1576 	aslb
   093B 49            [ 2] 1577 	rola
   093C 8E`00`0F      [ 3] 1578 	ldx	#_Displayed_Squares
   093F 31 8B         [ 8] 1579 	leay	d,x
   0941 8E`00`00      [ 3] 1580 	ldx	#_draw_square
   0944 AF A4         [ 5] 1581 	stx	,y
   0946 E6 E8 32      [ 5] 1582 	ldb	50,s
   0949 4F            [ 2] 1583 	clra		;zero_extendqihi: R:b -> R:d
   094A 1F 02         [ 6] 1584 	tfr	d,y
   094C 10 AF E4      [ 6] 1585 	sty	,s
   094F EC E4         [ 5] 1586 	ldd	,s
   0951 58            [ 2] 1587 	aslb
   0952 49            [ 2] 1588 	rola
   0953 58            [ 2] 1589 	aslb
   0954 49            [ 2] 1590 	rola
   0955 1F 01         [ 6] 1591 	tfr	d,x
   0957 AF E4         [ 5] 1592 	stx	,s
   0959 EC E4         [ 5] 1593 	ldd	,s
   095B 31 AB         [ 8] 1594 	leay	d,y
   095D                    1595 L55:
   095D F6`00`0B      [ 5] 1596 	ldb	_joy_x
   0960 5D            [ 2] 1597 	tstb
   0961 2C 52         [ 3] 1598 	bge	L56
   0963 F6`00`0C      [ 5] 1599 	ldb	_joy_y
   0966 5D            [ 2] 1600 	tstb
   0967 2C 4C         [ 3] 1601 	bge	L56
   0969 F6`00`01      [ 5] 1602 	ldb	_sneakyoffset
   096C E7 62         [ 5] 1603 	stb	2,s
   096E E6 62         [ 5] 1604 	ldb	2,s
   0970 CB 06         [ 2] 1605 	addb	#6
   0972 E7 E8 33      [ 5] 1606 	stb	51,s
   0975 E6 E8 33      [ 5] 1607 	ldb	51,s
   0978 4F            [ 2] 1608 	clra		;zero_extendqihi: R:b -> R:d
   0979 1F 01         [ 6] 1609 	tfr	d,x
   097B AF 6D         [ 6] 1610 	stx	13,s
   097D EC 6D         [ 6] 1611 	ldd	13,s
   097F 58            [ 2] 1612 	aslb
   0980 49            [ 2] 1613 	rola
   0981 58            [ 2] 1614 	aslb
   0982 49            [ 2] 1615 	rola
   0983 ED 6D         [ 6] 1616 	std	13,s
   0985 EC 6D         [ 6] 1617 	ldd	13,s
   0987 30 8B         [ 8] 1618 	leax	d,x
   0989 AF 6D         [ 6] 1619 	stx	13,s
   098B EC 6D         [ 6] 1620 	ldd	13,s
   098D C3 00 01      [ 4] 1621 	addd	#1; addhi3,3
   0990 58            [ 2] 1622 	aslb
   0991 49            [ 2] 1623 	rola
   0992 8E`00`0F      [ 3] 1624 	ldx	#_Displayed_Squares
   0995 31 8B         [ 8] 1625 	leay	d,x
   0997 8E`00`00      [ 3] 1626 	ldx	#_draw_square_filled
   099A AF A4         [ 5] 1627 	stx	,y
   099C E6 E8 33      [ 5] 1628 	ldb	51,s
   099F 4F            [ 2] 1629 	clra		;zero_extendqihi: R:b -> R:d
   09A0 1F 02         [ 6] 1630 	tfr	d,y
   09A2 10 AF E4      [ 6] 1631 	sty	,s
   09A5 EC E4         [ 5] 1632 	ldd	,s
   09A7 58            [ 2] 1633 	aslb
   09A8 49            [ 2] 1634 	rola
   09A9 58            [ 2] 1635 	aslb
   09AA 49            [ 2] 1636 	rola
   09AB 1F 01         [ 6] 1637 	tfr	d,x
   09AD AF E4         [ 5] 1638 	stx	,s
   09AF EC E4         [ 5] 1639 	ldd	,s
   09B1 31 AB         [ 8] 1640 	leay	d,y
   09B3 20 4A         [ 3] 1641 	bra	L57
   09B5                    1642 L56:
   09B5 F6`00`01      [ 5] 1643 	ldb	_sneakyoffset
   09B8 E7 62         [ 5] 1644 	stb	2,s
   09BA E6 62         [ 5] 1645 	ldb	2,s
   09BC CB 06         [ 2] 1646 	addb	#6
   09BE E7 E8 34      [ 5] 1647 	stb	52,s
   09C1 E6 E8 34      [ 5] 1648 	ldb	52,s
   09C4 4F            [ 2] 1649 	clra		;zero_extendqihi: R:b -> R:d
   09C5 1F 01         [ 6] 1650 	tfr	d,x
   09C7 AF 6B         [ 6] 1651 	stx	11,s
   09C9 EC 6B         [ 6] 1652 	ldd	11,s
   09CB 58            [ 2] 1653 	aslb
   09CC 49            [ 2] 1654 	rola
   09CD 58            [ 2] 1655 	aslb
   09CE 49            [ 2] 1656 	rola
   09CF ED 6B         [ 6] 1657 	std	11,s
   09D1 EC 6B         [ 6] 1658 	ldd	11,s
   09D3 30 8B         [ 8] 1659 	leax	d,x
   09D5 AF 6B         [ 6] 1660 	stx	11,s
   09D7 EC 6B         [ 6] 1661 	ldd	11,s
   09D9 C3 00 01      [ 4] 1662 	addd	#1; addhi3,3
   09DC 58            [ 2] 1663 	aslb
   09DD 49            [ 2] 1664 	rola
   09DE 8E`00`0F      [ 3] 1665 	ldx	#_Displayed_Squares
   09E1 31 8B         [ 8] 1666 	leay	d,x
   09E3 8E`00`00      [ 3] 1667 	ldx	#_draw_square
   09E6 AF A4         [ 5] 1668 	stx	,y
   09E8 E6 E8 34      [ 5] 1669 	ldb	52,s
   09EB 4F            [ 2] 1670 	clra		;zero_extendqihi: R:b -> R:d
   09EC 1F 02         [ 6] 1671 	tfr	d,y
   09EE 10 AF E4      [ 6] 1672 	sty	,s
   09F1 EC E4         [ 5] 1673 	ldd	,s
   09F3 58            [ 2] 1674 	aslb
   09F4 49            [ 2] 1675 	rola
   09F5 58            [ 2] 1676 	aslb
   09F6 49            [ 2] 1677 	rola
   09F7 1F 01         [ 6] 1678 	tfr	d,x
   09F9 AF E4         [ 5] 1679 	stx	,s
   09FB EC E4         [ 5] 1680 	ldd	,s
   09FD 31 AB         [ 8] 1681 	leay	d,y
   09FF                    1682 L57:
   09FF F6`00`0B      [ 5] 1683 	ldb	_joy_x
   0A02 5D            [ 2] 1684 	tstb
   0A03 26 52         [ 3] 1685 	bne	L58
   0A05 F6`00`0C      [ 5] 1686 	ldb	_joy_y
   0A08 5D            [ 2] 1687 	tstb
   0A09 2C 4C         [ 3] 1688 	bge	L58
   0A0B F6`00`01      [ 5] 1689 	ldb	_sneakyoffset
   0A0E E7 62         [ 5] 1690 	stb	2,s
   0A10 E6 62         [ 5] 1691 	ldb	2,s
   0A12 CB 07         [ 2] 1692 	addb	#7
   0A14 E7 E8 35      [ 5] 1693 	stb	53,s
   0A17 E6 E8 35      [ 5] 1694 	ldb	53,s
   0A1A 4F            [ 2] 1695 	clra		;zero_extendqihi: R:b -> R:d
   0A1B 1F 01         [ 6] 1696 	tfr	d,x
   0A1D AF 69         [ 6] 1697 	stx	9,s
   0A1F EC 69         [ 6] 1698 	ldd	9,s
   0A21 58            [ 2] 1699 	aslb
   0A22 49            [ 2] 1700 	rola
   0A23 58            [ 2] 1701 	aslb
   0A24 49            [ 2] 1702 	rola
   0A25 ED 69         [ 6] 1703 	std	9,s
   0A27 EC 69         [ 6] 1704 	ldd	9,s
   0A29 30 8B         [ 8] 1705 	leax	d,x
   0A2B AF 69         [ 6] 1706 	stx	9,s
   0A2D EC 69         [ 6] 1707 	ldd	9,s
   0A2F C3 00 01      [ 4] 1708 	addd	#1; addhi3,3
   0A32 58            [ 2] 1709 	aslb
   0A33 49            [ 2] 1710 	rola
   0A34 8E`00`0F      [ 3] 1711 	ldx	#_Displayed_Squares
   0A37 31 8B         [ 8] 1712 	leay	d,x
   0A39 8E`00`00      [ 3] 1713 	ldx	#_draw_square_filled
   0A3C AF A4         [ 5] 1714 	stx	,y
   0A3E E6 E8 35      [ 5] 1715 	ldb	53,s
   0A41 4F            [ 2] 1716 	clra		;zero_extendqihi: R:b -> R:d
   0A42 1F 02         [ 6] 1717 	tfr	d,y
   0A44 10 AF E4      [ 6] 1718 	sty	,s
   0A47 EC E4         [ 5] 1719 	ldd	,s
   0A49 58            [ 2] 1720 	aslb
   0A4A 49            [ 2] 1721 	rola
   0A4B 58            [ 2] 1722 	aslb
   0A4C 49            [ 2] 1723 	rola
   0A4D 1F 01         [ 6] 1724 	tfr	d,x
   0A4F AF E4         [ 5] 1725 	stx	,s
   0A51 EC E4         [ 5] 1726 	ldd	,s
   0A53 31 AB         [ 8] 1727 	leay	d,y
   0A55 20 4A         [ 3] 1728 	bra	L59
   0A57                    1729 L58:
   0A57 F6`00`01      [ 5] 1730 	ldb	_sneakyoffset
   0A5A E7 62         [ 5] 1731 	stb	2,s
   0A5C E6 62         [ 5] 1732 	ldb	2,s
   0A5E CB 07         [ 2] 1733 	addb	#7
   0A60 E7 E8 36      [ 5] 1734 	stb	54,s
   0A63 E6 E8 36      [ 5] 1735 	ldb	54,s
   0A66 4F            [ 2] 1736 	clra		;zero_extendqihi: R:b -> R:d
   0A67 1F 01         [ 6] 1737 	tfr	d,x
   0A69 AF 67         [ 6] 1738 	stx	7,s
   0A6B EC 67         [ 6] 1739 	ldd	7,s
   0A6D 58            [ 2] 1740 	aslb
   0A6E 49            [ 2] 1741 	rola
   0A6F 58            [ 2] 1742 	aslb
   0A70 49            [ 2] 1743 	rola
   0A71 ED 67         [ 6] 1744 	std	7,s
   0A73 EC 67         [ 6] 1745 	ldd	7,s
   0A75 30 8B         [ 8] 1746 	leax	d,x
   0A77 AF 67         [ 6] 1747 	stx	7,s
   0A79 EC 67         [ 6] 1748 	ldd	7,s
   0A7B C3 00 01      [ 4] 1749 	addd	#1; addhi3,3
   0A7E 58            [ 2] 1750 	aslb
   0A7F 49            [ 2] 1751 	rola
   0A80 8E`00`0F      [ 3] 1752 	ldx	#_Displayed_Squares
   0A83 31 8B         [ 8] 1753 	leay	d,x
   0A85 8E`00`00      [ 3] 1754 	ldx	#_draw_square
   0A88 AF A4         [ 5] 1755 	stx	,y
   0A8A E6 E8 36      [ 5] 1756 	ldb	54,s
   0A8D 4F            [ 2] 1757 	clra		;zero_extendqihi: R:b -> R:d
   0A8E 1F 02         [ 6] 1758 	tfr	d,y
   0A90 10 AF E4      [ 6] 1759 	sty	,s
   0A93 EC E4         [ 5] 1760 	ldd	,s
   0A95 58            [ 2] 1761 	aslb
   0A96 49            [ 2] 1762 	rola
   0A97 58            [ 2] 1763 	aslb
   0A98 49            [ 2] 1764 	rola
   0A99 1F 01         [ 6] 1765 	tfr	d,x
   0A9B AF E4         [ 5] 1766 	stx	,s
   0A9D EC E4         [ 5] 1767 	ldd	,s
   0A9F 31 AB         [ 8] 1768 	leay	d,y
   0AA1                    1769 L59:
   0AA1 F6`00`0B      [ 5] 1770 	ldb	_joy_x
   0AA4 5D            [ 2] 1771 	tstb
   0AA5 2F 52         [ 3] 1772 	ble	L60
   0AA7 F6`00`0C      [ 5] 1773 	ldb	_joy_y
   0AAA 5D            [ 2] 1774 	tstb
   0AAB 2C 4C         [ 3] 1775 	bge	L60
   0AAD F6`00`01      [ 5] 1776 	ldb	_sneakyoffset
   0AB0 E7 62         [ 5] 1777 	stb	2,s
   0AB2 E6 62         [ 5] 1778 	ldb	2,s
   0AB4 CB 08         [ 2] 1779 	addb	#8
   0AB6 E7 E8 37      [ 5] 1780 	stb	55,s
   0AB9 E6 E8 37      [ 5] 1781 	ldb	55,s
   0ABC 4F            [ 2] 1782 	clra		;zero_extendqihi: R:b -> R:d
   0ABD 1F 01         [ 6] 1783 	tfr	d,x
   0ABF AF 65         [ 6] 1784 	stx	5,s
   0AC1 EC 65         [ 6] 1785 	ldd	5,s
   0AC3 58            [ 2] 1786 	aslb
   0AC4 49            [ 2] 1787 	rola
   0AC5 58            [ 2] 1788 	aslb
   0AC6 49            [ 2] 1789 	rola
   0AC7 ED 65         [ 6] 1790 	std	5,s
   0AC9 EC 65         [ 6] 1791 	ldd	5,s
   0ACB 30 8B         [ 8] 1792 	leax	d,x
   0ACD AF 65         [ 6] 1793 	stx	5,s
   0ACF EC 65         [ 6] 1794 	ldd	5,s
   0AD1 C3 00 01      [ 4] 1795 	addd	#1; addhi3,3
   0AD4 58            [ 2] 1796 	aslb
   0AD5 49            [ 2] 1797 	rola
   0AD6 8E`00`0F      [ 3] 1798 	ldx	#_Displayed_Squares
   0AD9 31 8B         [ 8] 1799 	leay	d,x
   0ADB 8E`00`00      [ 3] 1800 	ldx	#_draw_square_filled
   0ADE AF A4         [ 5] 1801 	stx	,y
   0AE0 E6 E8 37      [ 5] 1802 	ldb	55,s
   0AE3 4F            [ 2] 1803 	clra		;zero_extendqihi: R:b -> R:d
   0AE4 1F 02         [ 6] 1804 	tfr	d,y
   0AE6 10 AF E4      [ 6] 1805 	sty	,s
   0AE9 EC E4         [ 5] 1806 	ldd	,s
   0AEB 58            [ 2] 1807 	aslb
   0AEC 49            [ 2] 1808 	rola
   0AED 58            [ 2] 1809 	aslb
   0AEE 49            [ 2] 1810 	rola
   0AEF 1F 01         [ 6] 1811 	tfr	d,x
   0AF1 AF E4         [ 5] 1812 	stx	,s
   0AF3 EC E4         [ 5] 1813 	ldd	,s
   0AF5 31 AB         [ 8] 1814 	leay	d,y
   0AF7 20 4A         [ 3] 1815 	bra	L62
   0AF9                    1816 L60:
   0AF9 F6`00`01      [ 5] 1817 	ldb	_sneakyoffset
   0AFC E7 62         [ 5] 1818 	stb	2,s
   0AFE E6 62         [ 5] 1819 	ldb	2,s
   0B00 CB 08         [ 2] 1820 	addb	#8
   0B02 E7 E8 38      [ 5] 1821 	stb	56,s
   0B05 E6 E8 38      [ 5] 1822 	ldb	56,s
   0B08 4F            [ 2] 1823 	clra		;zero_extendqihi: R:b -> R:d
   0B09 1F 01         [ 6] 1824 	tfr	d,x
   0B0B AF 63         [ 6] 1825 	stx	3,s
   0B0D EC 63         [ 6] 1826 	ldd	3,s
   0B0F 58            [ 2] 1827 	aslb
   0B10 49            [ 2] 1828 	rola
   0B11 58            [ 2] 1829 	aslb
   0B12 49            [ 2] 1830 	rola
   0B13 ED 63         [ 6] 1831 	std	3,s
   0B15 EC 63         [ 6] 1832 	ldd	3,s
   0B17 30 8B         [ 8] 1833 	leax	d,x
   0B19 AF 63         [ 6] 1834 	stx	3,s
   0B1B EC 63         [ 6] 1835 	ldd	3,s
   0B1D C3 00 01      [ 4] 1836 	addd	#1; addhi3,3
   0B20 58            [ 2] 1837 	aslb
   0B21 49            [ 2] 1838 	rola
   0B22 8E`00`0F      [ 3] 1839 	ldx	#_Displayed_Squares
   0B25 31 8B         [ 8] 1840 	leay	d,x
   0B27 8E`00`00      [ 3] 1841 	ldx	#_draw_square
   0B2A AF A4         [ 5] 1842 	stx	,y
   0B2C E6 E8 38      [ 5] 1843 	ldb	56,s
   0B2F 4F            [ 2] 1844 	clra		;zero_extendqihi: R:b -> R:d
   0B30 1F 02         [ 6] 1845 	tfr	d,y
   0B32 10 AF E4      [ 6] 1846 	sty	,s
   0B35 EC E4         [ 5] 1847 	ldd	,s
   0B37 58            [ 2] 1848 	aslb
   0B38 49            [ 2] 1849 	rola
   0B39 58            [ 2] 1850 	aslb
   0B3A 49            [ 2] 1851 	rola
   0B3B 1F 01         [ 6] 1852 	tfr	d,x
   0B3D AF E4         [ 5] 1853 	stx	,s
   0B3F EC E4         [ 5] 1854 	ldd	,s
   0B41 31 AB         [ 8] 1855 	leay	d,y
   0B43                    1856 L62:
   0B43 32 E8 39      [ 5] 1857 	leas	57,s
   0B46 35 A0         [ 7] 1858 	puls	y,pc
                           1859 	.globl	_read_player_input
   0B48                    1860 _read_player_input:
   0B48 32 7E         [ 5] 1861 	leas	-2,s
   0B4A BD`00`00      [ 8] 1862 	jsr	___Read_Btns
   0B4D BD`00`00      [ 8] 1863 	jsr	___Joy_Digital
   0B50 F6`00`00      [ 5] 1864 	ldb	_Vec_Joy_1_X
   0B53 F7`00`0B      [ 5] 1865 	stb	_joy_x
   0B56 F6`00`00      [ 5] 1866 	ldb	_Vec_Joy_1_Y
   0B59 F7`00`0C      [ 5] 1867 	stb	_joy_y
   0B5C F6`00`00      [ 5] 1868 	ldb	_Vec_Joy_1_X
   0B5F F7`00`0B      [ 5] 1869 	stb	_joy_x
   0B62 F6`00`00      [ 5] 1870 	ldb	_Vec_Joy_1_Y
   0B65 F7`00`0C      [ 5] 1871 	stb	_joy_y
   0B68 F6`00`0B      [ 5] 1872 	ldb	_joy_x
   0B6B 5D            [ 2] 1873 	tstb
   0B6C 2C 0B         [ 3] 1874 	bge	L64
   0B6E F6`00`0C      [ 5] 1875 	ldb	_joy_y
   0B71 5D            [ 2] 1876 	tstb
   0B72 2F 05         [ 3] 1877 	ble	L64
   0B74 7F`00`0D      [ 7] 1878 	clr	_temppass
   0B77 20 06         [ 3] 1879 	bra	L65
   0B79                    1880 L64:
   0B79 F6`00`0D      [ 5] 1881 	ldb	_temppass
   0B7C F7`00`0D      [ 5] 1882 	stb	_temppass
   0B7F                    1883 L65:
   0B7F F6`00`0B      [ 5] 1884 	ldb	_joy_x
   0B82 5D            [ 2] 1885 	tstb
   0B83 26 0D         [ 3] 1886 	bne	L66
   0B85 F6`00`0C      [ 5] 1887 	ldb	_joy_y
   0B88 5D            [ 2] 1888 	tstb
   0B89 2F 07         [ 3] 1889 	ble	L66
   0B8B C6 01         [ 2] 1890 	ldb	#1
   0B8D F7`00`0D      [ 5] 1891 	stb	_temppass
   0B90 20 06         [ 3] 1892 	bra	L67
   0B92                    1893 L66:
   0B92 F6`00`0D      [ 5] 1894 	ldb	_temppass
   0B95 F7`00`0D      [ 5] 1895 	stb	_temppass
   0B98                    1896 L67:
   0B98 F6`00`0B      [ 5] 1897 	ldb	_joy_x
   0B9B 5D            [ 2] 1898 	tstb
   0B9C 2F 0D         [ 3] 1899 	ble	L68
   0B9E F6`00`0C      [ 5] 1900 	ldb	_joy_y
   0BA1 5D            [ 2] 1901 	tstb
   0BA2 2F 07         [ 3] 1902 	ble	L68
   0BA4 C6 02         [ 2] 1903 	ldb	#2
   0BA6 F7`00`0D      [ 5] 1904 	stb	_temppass
   0BA9 20 06         [ 3] 1905 	bra	L69
   0BAB                    1906 L68:
   0BAB F6`00`0D      [ 5] 1907 	ldb	_temppass
   0BAE F7`00`0D      [ 5] 1908 	stb	_temppass
   0BB1                    1909 L69:
   0BB1 F6`00`0B      [ 5] 1910 	ldb	_joy_x
   0BB4 5D            [ 2] 1911 	tstb
   0BB5 2C 0D         [ 3] 1912 	bge	L70
   0BB7 F6`00`0C      [ 5] 1913 	ldb	_joy_y
   0BBA 5D            [ 2] 1914 	tstb
   0BBB 26 07         [ 3] 1915 	bne	L70
   0BBD C6 03         [ 2] 1916 	ldb	#3
   0BBF F7`00`0D      [ 5] 1917 	stb	_temppass
   0BC2 20 06         [ 3] 1918 	bra	L71
   0BC4                    1919 L70:
   0BC4 F6`00`0D      [ 5] 1920 	ldb	_temppass
   0BC7 F7`00`0D      [ 5] 1921 	stb	_temppass
   0BCA                    1922 L71:
   0BCA F6`00`0B      [ 5] 1923 	ldb	_joy_x
   0BCD 5D            [ 2] 1924 	tstb
   0BCE 26 0D         [ 3] 1925 	bne	L72
   0BD0 F6`00`0C      [ 5] 1926 	ldb	_joy_y
   0BD3 5D            [ 2] 1927 	tstb
   0BD4 26 07         [ 3] 1928 	bne	L72
   0BD6 C6 04         [ 2] 1929 	ldb	#4
   0BD8 F7`00`0D      [ 5] 1930 	stb	_temppass
   0BDB 20 06         [ 3] 1931 	bra	L73
   0BDD                    1932 L72:
   0BDD F6`00`0D      [ 5] 1933 	ldb	_temppass
   0BE0 F7`00`0D      [ 5] 1934 	stb	_temppass
   0BE3                    1935 L73:
   0BE3 F6`00`0B      [ 5] 1936 	ldb	_joy_x
   0BE6 5D            [ 2] 1937 	tstb
   0BE7 2F 0D         [ 3] 1938 	ble	L74
   0BE9 F6`00`0C      [ 5] 1939 	ldb	_joy_y
   0BEC 5D            [ 2] 1940 	tstb
   0BED 26 07         [ 3] 1941 	bne	L74
   0BEF C6 05         [ 2] 1942 	ldb	#5
   0BF1 F7`00`0D      [ 5] 1943 	stb	_temppass
   0BF4 20 06         [ 3] 1944 	bra	L75
   0BF6                    1945 L74:
   0BF6 F6`00`0D      [ 5] 1946 	ldb	_temppass
   0BF9 F7`00`0D      [ 5] 1947 	stb	_temppass
   0BFC                    1948 L75:
   0BFC F6`00`0B      [ 5] 1949 	ldb	_joy_x
   0BFF 5D            [ 2] 1950 	tstb
   0C00 2C 0D         [ 3] 1951 	bge	L76
   0C02 F6`00`0C      [ 5] 1952 	ldb	_joy_y
   0C05 5D            [ 2] 1953 	tstb
   0C06 2C 07         [ 3] 1954 	bge	L76
   0C08 C6 06         [ 2] 1955 	ldb	#6
   0C0A F7`00`0D      [ 5] 1956 	stb	_temppass
   0C0D 20 06         [ 3] 1957 	bra	L77
   0C0F                    1958 L76:
   0C0F F6`00`0D      [ 5] 1959 	ldb	_temppass
   0C12 F7`00`0D      [ 5] 1960 	stb	_temppass
   0C15                    1961 L77:
   0C15 F6`00`0B      [ 5] 1962 	ldb	_joy_x
   0C18 5D            [ 2] 1963 	tstb
   0C19 26 0D         [ 3] 1964 	bne	L78
   0C1B F6`00`0C      [ 5] 1965 	ldb	_joy_y
   0C1E 5D            [ 2] 1966 	tstb
   0C1F 2C 07         [ 3] 1967 	bge	L78
   0C21 C6 07         [ 2] 1968 	ldb	#7
   0C23 F7`00`0D      [ 5] 1969 	stb	_temppass
   0C26 20 06         [ 3] 1970 	bra	L79
   0C28                    1971 L78:
   0C28 F6`00`0D      [ 5] 1972 	ldb	_temppass
   0C2B F7`00`0D      [ 5] 1973 	stb	_temppass
   0C2E                    1974 L79:
   0C2E F6`00`0B      [ 5] 1975 	ldb	_joy_x
   0C31 5D            [ 2] 1976 	tstb
   0C32 2F 0D         [ 3] 1977 	ble	L80
   0C34 F6`00`0C      [ 5] 1978 	ldb	_joy_y
   0C37 5D            [ 2] 1979 	tstb
   0C38 2C 07         [ 3] 1980 	bge	L80
   0C3A C6 08         [ 2] 1981 	ldb	#8
   0C3C F7`00`0D      [ 5] 1982 	stb	_temppass
   0C3F 20 06         [ 3] 1983 	bra	L81
   0C41                    1984 L80:
   0C41 F6`00`0D      [ 5] 1985 	ldb	_temppass
   0C44 F7`00`0D      [ 5] 1986 	stb	_temppass
   0C47                    1987 L81:
   0C47 F6`00`00      [ 5] 1988 	ldb	_Vec_Buttons
   0C4A C4 01         [ 2] 1989 	andb	#1
   0C4C 5D            [ 2] 1990 	tstb
   0C4D 27 1C         [ 3] 1991 	beq	L83
   0C4F F6`00`00      [ 5] 1992 	ldb	_buttonspressedcounter
   0C52 E7 E4         [ 4] 1993 	stb	,s
   0C54 F6`00`0D      [ 5] 1994 	ldb	_temppass
   0C57 E7 61         [ 5] 1995 	stb	1,s
   0C59 E6 E4         [ 4] 1996 	ldb	,s
   0C5B 4F            [ 2] 1997 	clra		;zero_extendqihi: R:b -> R:d
   0C5C 1F 01         [ 6] 1998 	tfr	d,x
   0C5E E6 61         [ 5] 1999 	ldb	1,s
   0C60 E7 89`00`7D   [ 8] 2000 	stb	_a_random_compare,x
   0C64 F6`00`00      [ 5] 2001 	ldb	_buttonspressedcounter
   0C67 5C            [ 2] 2002 	incb
   0C68 F7`00`00      [ 5] 2003 	stb	_buttonspressedcounter
   0C6B                    2004 L83:
   0C6B 32 62         [ 5] 2005 	leas	2,s
   0C6D 39            [ 5] 2006 	rts
   0C6E                    2007 LC7:
   0C6E 21 53 4E 45 41 4B  2008 	.byte	33,83,78,69,65,75,89,32
        59 20
   0C76 4F 46 46 53 45 54  2009 	.byte	79,70,70,83,69,84,33,-128
        21 80
   0C7E 00                 2010 	.byte	0
                           2011 	.globl	_Set_traps
   0C7F                    2012 _Set_traps:
   0C7F 7F`00`01      [ 7] 2013 	clr	_sneakyoffset
   0C82 F6`00`04      [ 5] 2014 	ldb	_RandomSequenceCounterDisplay
   0C85 C1 03         [ 2] 2015 	cmpb	#3	;cmpqi:
   0C87 23 28         [ 3] 2016 	bls	L85
   0C89 F6`00`04      [ 5] 2017 	ldb	_RandomSequenceCounterDisplay
   0C8C C1 07         [ 2] 2018 	cmpb	#7	;cmpqi:
   0C8E 22 21         [ 3] 2019 	bhi	L85
   0C90 C6 C8         [ 2] 2020 	ldb	#-56
   0C92 E7 E2         [ 6] 2021 	stb	,-s
   0C94 8E 01 90      [ 3] 2022 	ldx	#400
   0C97 C6 03         [ 2] 2023 	ldb	#3
   0C99 BD`00`00      [ 8] 2024 	jsr	_play_tune
   0C9C 32 61         [ 5] 2025 	leas	1,s
   0C9E C6 A6         [ 2] 2026 	ldb	#-90
   0CA0 E7 E2         [ 6] 2027 	stb	,-s
   0CA2 8E`0C`6E      [ 3] 2028 	ldx	#LC7
   0CA5 C6 73         [ 2] 2029 	ldb	#115
   0CA7 BD`00`00      [ 8] 2030 	jsr	_print_string
   0CAA 32 61         [ 5] 2031 	leas	1,s
   0CAC C6 03         [ 2] 2032 	ldb	#3
   0CAE F7`00`01      [ 5] 2033 	stb	_sneakyoffset
   0CB1                    2034 L85:
   0CB1 F6`00`04      [ 5] 2035 	ldb	_RandomSequenceCounterDisplay
   0CB4 C1 0A         [ 2] 2036 	cmpb	#10	;cmpqi:
   0CB6 23 28         [ 3] 2037 	bls	L87
   0CB8 F6`00`04      [ 5] 2038 	ldb	_RandomSequenceCounterDisplay
   0CBB C1 0D         [ 2] 2039 	cmpb	#13	;cmpqi:
   0CBD 22 21         [ 3] 2040 	bhi	L87
   0CBF C6 C8         [ 2] 2041 	ldb	#-56
   0CC1 E7 E2         [ 6] 2042 	stb	,-s
   0CC3 8E 01 90      [ 3] 2043 	ldx	#400
   0CC6 C6 03         [ 2] 2044 	ldb	#3
   0CC8 BD`00`00      [ 8] 2045 	jsr	_play_tune
   0CCB 32 61         [ 5] 2046 	leas	1,s
   0CCD C6 A6         [ 2] 2047 	ldb	#-90
   0CCF E7 E2         [ 6] 2048 	stb	,-s
   0CD1 8E`0C`6E      [ 3] 2049 	ldx	#LC7
   0CD4 C6 73         [ 2] 2050 	ldb	#115
   0CD6 BD`00`00      [ 8] 2051 	jsr	_print_string
   0CD9 32 61         [ 5] 2052 	leas	1,s
   0CDB C6 02         [ 2] 2053 	ldb	#2
   0CDD F7`00`01      [ 5] 2054 	stb	_sneakyoffset
   0CE0                    2055 L87:
   0CE0 39            [ 5] 2056 	rts
                           2057 	.globl	_add_square_x
   0CE1                    2058 _add_square_x:
   0CE1 34 60         [ 7] 2059 	pshs	y,u
   0CE3 32 72         [ 5] 2060 	leas	-14,s
   0CE5 E7 6D         [ 5] 2061 	stb	13,s
   0CE7 E6 6D         [ 5] 2062 	ldb	13,s
   0CE9 E7 6B         [ 5] 2063 	stb	11,s
   0CEB E6 6D         [ 5] 2064 	ldb	13,s
   0CED 1D            [ 2] 2065 	sex		;extendqihi2: R:b -> R:d
   0CEE ED 69         [ 6] 2066 	std	9,s
   0CF0 EC 69         [ 6] 2067 	ldd	9,s
   0CF2 58            [ 2] 2068 	aslb
   0CF3 49            [ 2] 2069 	rola
   0CF4 ED 69         [ 6] 2070 	std	9,s
   0CF6 EC 69         [ 6] 2071 	ldd	9,s
   0CF8 58            [ 2] 2072 	aslb
   0CF9 49            [ 2] 2073 	rola
   0CFA 58            [ 2] 2074 	aslb
   0CFB 49            [ 2] 2075 	rola
   0CFC AE 69         [ 6] 2076 	ldx	9,s
   0CFE 30 8B         [ 8] 2077 	leax	d,x
   0D00 AF 69         [ 6] 2078 	stx	9,s
   0D02 EE 69         [ 6] 2079 	ldu	9,s
   0D04 30 C9`00`0F   [ 8] 2080 	leax	_Displayed_Squares,u
   0D08 E6 84         [ 4] 2081 	ldb	,x
   0D0A E7 62         [ 5] 2082 	stb	2,s
   0D0C E6 62         [ 5] 2083 	ldb	2,s
   0D0E 5C            [ 2] 2084 	incb
   0D0F E7 6C         [ 5] 2085 	stb	12,s
   0D11 E6 6B         [ 5] 2086 	ldb	11,s
   0D13 1D            [ 2] 2087 	sex		;extendqihi2: R:b -> R:d
   0D14 ED E4         [ 5] 2088 	std	,s
   0D16 AE E4         [ 5] 2089 	ldx	,s
   0D18 AF 67         [ 6] 2090 	stx	7,s
   0D1A EC 67         [ 6] 2091 	ldd	7,s
   0D1C 58            [ 2] 2092 	aslb
   0D1D 49            [ 2] 2093 	rola
   0D1E ED 67         [ 6] 2094 	std	7,s
   0D20 EC 67         [ 6] 2095 	ldd	7,s
   0D22 58            [ 2] 2096 	aslb
   0D23 49            [ 2] 2097 	rola
   0D24 58            [ 2] 2098 	aslb
   0D25 49            [ 2] 2099 	rola
   0D26 EE 67         [ 6] 2100 	ldu	7,s
   0D28 33 CB         [ 8] 2101 	leau	d,u
   0D2A EF 67         [ 6] 2102 	stu	7,s
   0D2C EE 67         [ 6] 2103 	ldu	7,s
   0D2E 30 C9`00`0F   [ 8] 2104 	leax	_Displayed_Squares,u
   0D32 E6 6C         [ 5] 2105 	ldb	12,s
   0D34 E7 84         [ 4] 2106 	stb	,x
   0D36 E6 6D         [ 5] 2107 	ldb	13,s
   0D38 1D            [ 2] 2108 	sex		;extendqihi2: R:b -> R:d
   0D39 ED 65         [ 6] 2109 	std	5,s
   0D3B EC 65         [ 6] 2110 	ldd	5,s
   0D3D 58            [ 2] 2111 	aslb
   0D3E 49            [ 2] 2112 	rola
   0D3F ED 65         [ 6] 2113 	std	5,s
   0D41 EC 65         [ 6] 2114 	ldd	5,s
   0D43 58            [ 2] 2115 	aslb
   0D44 49            [ 2] 2116 	rola
   0D45 58            [ 2] 2117 	aslb
   0D46 49            [ 2] 2118 	rola
   0D47 AE 65         [ 6] 2119 	ldx	5,s
   0D49 30 8B         [ 8] 2120 	leax	d,x
   0D4B AF 65         [ 6] 2121 	stx	5,s
   0D4D EE 65         [ 6] 2122 	ldu	5,s
   0D4F 30 C9`00`0F   [ 8] 2123 	leax	_Displayed_Squares,u
   0D53 E6 84         [ 4] 2124 	ldb	,x
   0D55 C1 19         [ 2] 2125 	cmpb	#25	;cmpqi:
   0D57 2F 22         [ 3] 2126 	ble	L90
   0D59 E6 6D         [ 5] 2127 	ldb	13,s
   0D5B 1D            [ 2] 2128 	sex		;extendqihi2: R:b -> R:d
   0D5C ED 63         [ 6] 2129 	std	3,s
   0D5E EC 63         [ 6] 2130 	ldd	3,s
   0D60 58            [ 2] 2131 	aslb
   0D61 49            [ 2] 2132 	rola
   0D62 ED 63         [ 6] 2133 	std	3,s
   0D64 EC 63         [ 6] 2134 	ldd	3,s
   0D66 58            [ 2] 2135 	aslb
   0D67 49            [ 2] 2136 	rola
   0D68 58            [ 2] 2137 	aslb
   0D69 49            [ 2] 2138 	rola
   0D6A AE 63         [ 6] 2139 	ldx	3,s
   0D6C 30 8B         [ 8] 2140 	leax	d,x
   0D6E AF 63         [ 6] 2141 	stx	3,s
   0D70 EE 63         [ 6] 2142 	ldu	3,s
   0D72 31 C9`00`13   [ 8] 2143 	leay	_Displayed_Squares+4,u
   0D76 8E`0E`1D      [ 3] 2144 	ldx	#_sub_square_x
   0D79 AF A4         [ 5] 2145 	stx	,y
   0D7B                    2146 L90:
   0D7B 32 6E         [ 5] 2147 	leas	14,s
   0D7D 35 E0         [ 8] 2148 	puls	y,u,pc
                           2149 	.globl	_add_square_y
   0D7F                    2150 _add_square_y:
   0D7F 34 60         [ 7] 2151 	pshs	y,u
   0D81 32 72         [ 5] 2152 	leas	-14,s
   0D83 E7 6D         [ 5] 2153 	stb	13,s
   0D85 E6 6D         [ 5] 2154 	ldb	13,s
   0D87 E7 6B         [ 5] 2155 	stb	11,s
   0D89 E6 6D         [ 5] 2156 	ldb	13,s
   0D8B 1D            [ 2] 2157 	sex		;extendqihi2: R:b -> R:d
   0D8C ED 69         [ 6] 2158 	std	9,s
   0D8E EC 69         [ 6] 2159 	ldd	9,s
   0D90 58            [ 2] 2160 	aslb
   0D91 49            [ 2] 2161 	rola
   0D92 ED 69         [ 6] 2162 	std	9,s
   0D94 EC 69         [ 6] 2163 	ldd	9,s
   0D96 58            [ 2] 2164 	aslb
   0D97 49            [ 2] 2165 	rola
   0D98 58            [ 2] 2166 	aslb
   0D99 49            [ 2] 2167 	rola
   0D9A AE 69         [ 6] 2168 	ldx	9,s
   0D9C 30 8B         [ 8] 2169 	leax	d,x
   0D9E AF 69         [ 6] 2170 	stx	9,s
   0DA0 EE 69         [ 6] 2171 	ldu	9,s
   0DA2 30 C9`00`10   [ 8] 2172 	leax	_Displayed_Squares+1,u
   0DA6 E6 84         [ 4] 2173 	ldb	,x
   0DA8 E7 62         [ 5] 2174 	stb	2,s
   0DAA E6 62         [ 5] 2175 	ldb	2,s
   0DAC 5C            [ 2] 2176 	incb
   0DAD E7 6C         [ 5] 2177 	stb	12,s
   0DAF E6 6B         [ 5] 2178 	ldb	11,s
   0DB1 1D            [ 2] 2179 	sex		;extendqihi2: R:b -> R:d
   0DB2 ED E4         [ 5] 2180 	std	,s
   0DB4 AE E4         [ 5] 2181 	ldx	,s
   0DB6 AF 67         [ 6] 2182 	stx	7,s
   0DB8 EC 67         [ 6] 2183 	ldd	7,s
   0DBA 58            [ 2] 2184 	aslb
   0DBB 49            [ 2] 2185 	rola
   0DBC ED 67         [ 6] 2186 	std	7,s
   0DBE EC 67         [ 6] 2187 	ldd	7,s
   0DC0 58            [ 2] 2188 	aslb
   0DC1 49            [ 2] 2189 	rola
   0DC2 58            [ 2] 2190 	aslb
   0DC3 49            [ 2] 2191 	rola
   0DC4 EE 67         [ 6] 2192 	ldu	7,s
   0DC6 33 CB         [ 8] 2193 	leau	d,u
   0DC8 EF 67         [ 6] 2194 	stu	7,s
   0DCA EE 67         [ 6] 2195 	ldu	7,s
   0DCC 30 C9`00`10   [ 8] 2196 	leax	_Displayed_Squares+1,u
   0DD0 E6 6C         [ 5] 2197 	ldb	12,s
   0DD2 E7 84         [ 4] 2198 	stb	,x
   0DD4 E6 6D         [ 5] 2199 	ldb	13,s
   0DD6 1D            [ 2] 2200 	sex		;extendqihi2: R:b -> R:d
   0DD7 ED 65         [ 6] 2201 	std	5,s
   0DD9 EC 65         [ 6] 2202 	ldd	5,s
   0DDB 58            [ 2] 2203 	aslb
   0DDC 49            [ 2] 2204 	rola
   0DDD ED 65         [ 6] 2205 	std	5,s
   0DDF EC 65         [ 6] 2206 	ldd	5,s
   0DE1 58            [ 2] 2207 	aslb
   0DE2 49            [ 2] 2208 	rola
   0DE3 58            [ 2] 2209 	aslb
   0DE4 49            [ 2] 2210 	rola
   0DE5 AE 65         [ 6] 2211 	ldx	5,s
   0DE7 30 8B         [ 8] 2212 	leax	d,x
   0DE9 AF 65         [ 6] 2213 	stx	5,s
   0DEB EE 65         [ 6] 2214 	ldu	5,s
   0DED 30 C9`00`10   [ 8] 2215 	leax	_Displayed_Squares+1,u
   0DF1 E6 84         [ 4] 2216 	ldb	,x
   0DF3 C1 19         [ 2] 2217 	cmpb	#25	;cmpqi:
   0DF5 2F 22         [ 3] 2218 	ble	L93
   0DF7 E6 6D         [ 5] 2219 	ldb	13,s
   0DF9 1D            [ 2] 2220 	sex		;extendqihi2: R:b -> R:d
   0DFA ED 63         [ 6] 2221 	std	3,s
   0DFC EC 63         [ 6] 2222 	ldd	3,s
   0DFE 58            [ 2] 2223 	aslb
   0DFF 49            [ 2] 2224 	rola
   0E00 ED 63         [ 6] 2225 	std	3,s
   0E02 EC 63         [ 6] 2226 	ldd	3,s
   0E04 58            [ 2] 2227 	aslb
   0E05 49            [ 2] 2228 	rola
   0E06 58            [ 2] 2229 	aslb
   0E07 49            [ 2] 2230 	rola
   0E08 AE 63         [ 6] 2231 	ldx	3,s
   0E0A 30 8B         [ 8] 2232 	leax	d,x
   0E0C AF 63         [ 6] 2233 	stx	3,s
   0E0E EE 63         [ 6] 2234 	ldu	3,s
   0E10 31 C9`00`15   [ 8] 2235 	leay	_Displayed_Squares+6,u
   0E14 8E`0E`BB      [ 3] 2236 	ldx	#_sub_square_y
   0E17 AF A4         [ 5] 2237 	stx	,y
   0E19                    2238 L93:
   0E19 32 6E         [ 5] 2239 	leas	14,s
   0E1B 35 E0         [ 8] 2240 	puls	y,u,pc
                           2241 	.globl	_sub_square_x
   0E1D                    2242 _sub_square_x:
   0E1D 34 60         [ 7] 2243 	pshs	y,u
   0E1F 32 72         [ 5] 2244 	leas	-14,s
   0E21 E7 6D         [ 5] 2245 	stb	13,s
   0E23 E6 6D         [ 5] 2246 	ldb	13,s
   0E25 E7 6B         [ 5] 2247 	stb	11,s
   0E27 E6 6D         [ 5] 2248 	ldb	13,s
   0E29 1D            [ 2] 2249 	sex		;extendqihi2: R:b -> R:d
   0E2A ED 69         [ 6] 2250 	std	9,s
   0E2C EC 69         [ 6] 2251 	ldd	9,s
   0E2E 58            [ 2] 2252 	aslb
   0E2F 49            [ 2] 2253 	rola
   0E30 ED 69         [ 6] 2254 	std	9,s
   0E32 EC 69         [ 6] 2255 	ldd	9,s
   0E34 58            [ 2] 2256 	aslb
   0E35 49            [ 2] 2257 	rola
   0E36 58            [ 2] 2258 	aslb
   0E37 49            [ 2] 2259 	rola
   0E38 AE 69         [ 6] 2260 	ldx	9,s
   0E3A 30 8B         [ 8] 2261 	leax	d,x
   0E3C AF 69         [ 6] 2262 	stx	9,s
   0E3E EE 69         [ 6] 2263 	ldu	9,s
   0E40 30 C9`00`0F   [ 8] 2264 	leax	_Displayed_Squares,u
   0E44 E6 84         [ 4] 2265 	ldb	,x
   0E46 E7 62         [ 5] 2266 	stb	2,s
   0E48 E6 62         [ 5] 2267 	ldb	2,s
   0E4A 5A            [ 2] 2268 	decb
   0E4B E7 6C         [ 5] 2269 	stb	12,s
   0E4D E6 6B         [ 5] 2270 	ldb	11,s
   0E4F 1D            [ 2] 2271 	sex		;extendqihi2: R:b -> R:d
   0E50 ED E4         [ 5] 2272 	std	,s
   0E52 AE E4         [ 5] 2273 	ldx	,s
   0E54 AF 67         [ 6] 2274 	stx	7,s
   0E56 EC 67         [ 6] 2275 	ldd	7,s
   0E58 58            [ 2] 2276 	aslb
   0E59 49            [ 2] 2277 	rola
   0E5A ED 67         [ 6] 2278 	std	7,s
   0E5C EC 67         [ 6] 2279 	ldd	7,s
   0E5E 58            [ 2] 2280 	aslb
   0E5F 49            [ 2] 2281 	rola
   0E60 58            [ 2] 2282 	aslb
   0E61 49            [ 2] 2283 	rola
   0E62 EE 67         [ 6] 2284 	ldu	7,s
   0E64 33 CB         [ 8] 2285 	leau	d,u
   0E66 EF 67         [ 6] 2286 	stu	7,s
   0E68 EE 67         [ 6] 2287 	ldu	7,s
   0E6A 30 C9`00`0F   [ 8] 2288 	leax	_Displayed_Squares,u
   0E6E E6 6C         [ 5] 2289 	ldb	12,s
   0E70 E7 84         [ 4] 2290 	stb	,x
   0E72 E6 6D         [ 5] 2291 	ldb	13,s
   0E74 1D            [ 2] 2292 	sex		;extendqihi2: R:b -> R:d
   0E75 ED 65         [ 6] 2293 	std	5,s
   0E77 EC 65         [ 6] 2294 	ldd	5,s
   0E79 58            [ 2] 2295 	aslb
   0E7A 49            [ 2] 2296 	rola
   0E7B ED 65         [ 6] 2297 	std	5,s
   0E7D EC 65         [ 6] 2298 	ldd	5,s
   0E7F 58            [ 2] 2299 	aslb
   0E80 49            [ 2] 2300 	rola
   0E81 58            [ 2] 2301 	aslb
   0E82 49            [ 2] 2302 	rola
   0E83 AE 65         [ 6] 2303 	ldx	5,s
   0E85 30 8B         [ 8] 2304 	leax	d,x
   0E87 AF 65         [ 6] 2305 	stx	5,s
   0E89 EE 65         [ 6] 2306 	ldu	5,s
   0E8B 30 C9`00`0F   [ 8] 2307 	leax	_Displayed_Squares,u
   0E8F E6 84         [ 4] 2308 	ldb	,x
   0E91 C1 E7         [ 2] 2309 	cmpb	#-25	;cmpqi:
   0E93 2C 22         [ 3] 2310 	bge	L96
   0E95 E6 6D         [ 5] 2311 	ldb	13,s
   0E97 1D            [ 2] 2312 	sex		;extendqihi2: R:b -> R:d
   0E98 ED 63         [ 6] 2313 	std	3,s
   0E9A EC 63         [ 6] 2314 	ldd	3,s
   0E9C 58            [ 2] 2315 	aslb
   0E9D 49            [ 2] 2316 	rola
   0E9E ED 63         [ 6] 2317 	std	3,s
   0EA0 EC 63         [ 6] 2318 	ldd	3,s
   0EA2 58            [ 2] 2319 	aslb
   0EA3 49            [ 2] 2320 	rola
   0EA4 58            [ 2] 2321 	aslb
   0EA5 49            [ 2] 2322 	rola
   0EA6 AE 63         [ 6] 2323 	ldx	3,s
   0EA8 30 8B         [ 8] 2324 	leax	d,x
   0EAA AF 63         [ 6] 2325 	stx	3,s
   0EAC EE 63         [ 6] 2326 	ldu	3,s
   0EAE 31 C9`00`13   [ 8] 2327 	leay	_Displayed_Squares+4,u
   0EB2 8E`0C`E1      [ 3] 2328 	ldx	#_add_square_x
   0EB5 AF A4         [ 5] 2329 	stx	,y
   0EB7                    2330 L96:
   0EB7 32 6E         [ 5] 2331 	leas	14,s
   0EB9 35 E0         [ 8] 2332 	puls	y,u,pc
                           2333 	.globl	_sub_square_y
   0EBB                    2334 _sub_square_y:
   0EBB 34 60         [ 7] 2335 	pshs	y,u
   0EBD 32 72         [ 5] 2336 	leas	-14,s
   0EBF E7 6D         [ 5] 2337 	stb	13,s
   0EC1 E6 6D         [ 5] 2338 	ldb	13,s
   0EC3 E7 6B         [ 5] 2339 	stb	11,s
   0EC5 E6 6D         [ 5] 2340 	ldb	13,s
   0EC7 1D            [ 2] 2341 	sex		;extendqihi2: R:b -> R:d
   0EC8 ED 69         [ 6] 2342 	std	9,s
   0ECA EC 69         [ 6] 2343 	ldd	9,s
   0ECC 58            [ 2] 2344 	aslb
   0ECD 49            [ 2] 2345 	rola
   0ECE ED 69         [ 6] 2346 	std	9,s
   0ED0 EC 69         [ 6] 2347 	ldd	9,s
   0ED2 58            [ 2] 2348 	aslb
   0ED3 49            [ 2] 2349 	rola
   0ED4 58            [ 2] 2350 	aslb
   0ED5 49            [ 2] 2351 	rola
   0ED6 AE 69         [ 6] 2352 	ldx	9,s
   0ED8 30 8B         [ 8] 2353 	leax	d,x
   0EDA AF 69         [ 6] 2354 	stx	9,s
   0EDC EE 69         [ 6] 2355 	ldu	9,s
   0EDE 30 C9`00`10   [ 8] 2356 	leax	_Displayed_Squares+1,u
   0EE2 E6 84         [ 4] 2357 	ldb	,x
   0EE4 E7 62         [ 5] 2358 	stb	2,s
   0EE6 E6 62         [ 5] 2359 	ldb	2,s
   0EE8 5A            [ 2] 2360 	decb
   0EE9 E7 6C         [ 5] 2361 	stb	12,s
   0EEB E6 6B         [ 5] 2362 	ldb	11,s
   0EED 1D            [ 2] 2363 	sex		;extendqihi2: R:b -> R:d
   0EEE ED E4         [ 5] 2364 	std	,s
   0EF0 AE E4         [ 5] 2365 	ldx	,s
   0EF2 AF 67         [ 6] 2366 	stx	7,s
   0EF4 EC 67         [ 6] 2367 	ldd	7,s
   0EF6 58            [ 2] 2368 	aslb
   0EF7 49            [ 2] 2369 	rola
   0EF8 ED 67         [ 6] 2370 	std	7,s
   0EFA EC 67         [ 6] 2371 	ldd	7,s
   0EFC 58            [ 2] 2372 	aslb
   0EFD 49            [ 2] 2373 	rola
   0EFE 58            [ 2] 2374 	aslb
   0EFF 49            [ 2] 2375 	rola
   0F00 EE 67         [ 6] 2376 	ldu	7,s
   0F02 33 CB         [ 8] 2377 	leau	d,u
   0F04 EF 67         [ 6] 2378 	stu	7,s
   0F06 EE 67         [ 6] 2379 	ldu	7,s
   0F08 30 C9`00`10   [ 8] 2380 	leax	_Displayed_Squares+1,u
   0F0C E6 6C         [ 5] 2381 	ldb	12,s
   0F0E E7 84         [ 4] 2382 	stb	,x
   0F10 E6 6D         [ 5] 2383 	ldb	13,s
   0F12 1D            [ 2] 2384 	sex		;extendqihi2: R:b -> R:d
   0F13 ED 65         [ 6] 2385 	std	5,s
   0F15 EC 65         [ 6] 2386 	ldd	5,s
   0F17 58            [ 2] 2387 	aslb
   0F18 49            [ 2] 2388 	rola
   0F19 ED 65         [ 6] 2389 	std	5,s
   0F1B EC 65         [ 6] 2390 	ldd	5,s
   0F1D 58            [ 2] 2391 	aslb
   0F1E 49            [ 2] 2392 	rola
   0F1F 58            [ 2] 2393 	aslb
   0F20 49            [ 2] 2394 	rola
   0F21 AE 65         [ 6] 2395 	ldx	5,s
   0F23 30 8B         [ 8] 2396 	leax	d,x
   0F25 AF 65         [ 6] 2397 	stx	5,s
   0F27 EE 65         [ 6] 2398 	ldu	5,s
   0F29 30 C9`00`10   [ 8] 2399 	leax	_Displayed_Squares+1,u
   0F2D E6 84         [ 4] 2400 	ldb	,x
   0F2F C1 E7         [ 2] 2401 	cmpb	#-25	;cmpqi:
   0F31 2C 22         [ 3] 2402 	bge	L99
   0F33 E6 6D         [ 5] 2403 	ldb	13,s
   0F35 1D            [ 2] 2404 	sex		;extendqihi2: R:b -> R:d
   0F36 ED 63         [ 6] 2405 	std	3,s
   0F38 EC 63         [ 6] 2406 	ldd	3,s
   0F3A 58            [ 2] 2407 	aslb
   0F3B 49            [ 2] 2408 	rola
   0F3C ED 63         [ 6] 2409 	std	3,s
   0F3E EC 63         [ 6] 2410 	ldd	3,s
   0F40 58            [ 2] 2411 	aslb
   0F41 49            [ 2] 2412 	rola
   0F42 58            [ 2] 2413 	aslb
   0F43 49            [ 2] 2414 	rola
   0F44 AE 63         [ 6] 2415 	ldx	3,s
   0F46 30 8B         [ 8] 2416 	leax	d,x
   0F48 AF 63         [ 6] 2417 	stx	3,s
   0F4A EE 63         [ 6] 2418 	ldu	3,s
   0F4C 31 C9`00`15   [ 8] 2419 	leay	_Displayed_Squares+6,u
   0F50 8E`0D`7F      [ 3] 2420 	ldx	#_add_square_y
   0F53 AF A4         [ 5] 2421 	stx	,y
   0F55                    2422 L99:
   0F55 32 6E         [ 5] 2423 	leas	14,s
   0F57 35 E0         [ 8] 2424 	puls	y,u,pc
                           2425 	.globl	_Add_Movement
   0F59                    2426 _Add_Movement:
   0F59 BE`00`13      [ 6] 2427 	ldx	_Displayed_Squares+4
   0F5C 5F            [ 2] 2428 	clrb
   0F5D AD 84         [ 7] 2429 	jsr	,x
   0F5F BE`00`1D      [ 6] 2430 	ldx	_Displayed_Squares+14
   0F62 C6 01         [ 2] 2431 	ldb	#1
   0F64 AD 84         [ 7] 2432 	jsr	,x
   0F66 BE`00`27      [ 6] 2433 	ldx	_Displayed_Squares+24
   0F69 C6 02         [ 2] 2434 	ldb	#2
   0F6B AD 84         [ 7] 2435 	jsr	,x
   0F6D BE`00`31      [ 6] 2436 	ldx	_Displayed_Squares+34
   0F70 C6 03         [ 2] 2437 	ldb	#3
   0F72 AD 84         [ 7] 2438 	jsr	,x
   0F74 BE`00`3B      [ 6] 2439 	ldx	_Displayed_Squares+44
   0F77 C6 04         [ 2] 2440 	ldb	#4
   0F79 AD 84         [ 7] 2441 	jsr	,x
   0F7B BE`00`45      [ 6] 2442 	ldx	_Displayed_Squares+54
   0F7E C6 05         [ 2] 2443 	ldb	#5
   0F80 AD 84         [ 7] 2444 	jsr	,x
   0F82 BE`00`4F      [ 6] 2445 	ldx	_Displayed_Squares+64
   0F85 C6 06         [ 2] 2446 	ldb	#6
   0F87 AD 84         [ 7] 2447 	jsr	,x
   0F89 BE`00`59      [ 6] 2448 	ldx	_Displayed_Squares+74
   0F8C C6 07         [ 2] 2449 	ldb	#7
   0F8E AD 84         [ 7] 2450 	jsr	,x
   0F90 BE`00`63      [ 6] 2451 	ldx	_Displayed_Squares+84
   0F93 C6 08         [ 2] 2452 	ldb	#8
   0F95 AD 84         [ 7] 2453 	jsr	,x
   0F97 BE`00`15      [ 6] 2454 	ldx	_Displayed_Squares+6
   0F9A 5F            [ 2] 2455 	clrb
   0F9B AD 84         [ 7] 2456 	jsr	,x
   0F9D BE`00`1F      [ 6] 2457 	ldx	_Displayed_Squares+16
   0FA0 C6 01         [ 2] 2458 	ldb	#1
   0FA2 AD 84         [ 7] 2459 	jsr	,x
   0FA4 BE`00`29      [ 6] 2460 	ldx	_Displayed_Squares+26
   0FA7 C6 02         [ 2] 2461 	ldb	#2
   0FA9 AD 84         [ 7] 2462 	jsr	,x
   0FAB BE`00`33      [ 6] 2463 	ldx	_Displayed_Squares+36
   0FAE C6 03         [ 2] 2464 	ldb	#3
   0FB0 AD 84         [ 7] 2465 	jsr	,x
   0FB2 BE`00`3D      [ 6] 2466 	ldx	_Displayed_Squares+46
   0FB5 C6 04         [ 2] 2467 	ldb	#4
   0FB7 AD 84         [ 7] 2468 	jsr	,x
   0FB9 BE`00`47      [ 6] 2469 	ldx	_Displayed_Squares+56
   0FBC C6 05         [ 2] 2470 	ldb	#5
   0FBE AD 84         [ 7] 2471 	jsr	,x
   0FC0 BE`00`51      [ 6] 2472 	ldx	_Displayed_Squares+66
   0FC3 C6 06         [ 2] 2473 	ldb	#6
   0FC5 AD 84         [ 7] 2474 	jsr	,x
   0FC7 BE`00`5B      [ 6] 2475 	ldx	_Displayed_Squares+76
   0FCA C6 07         [ 2] 2476 	ldb	#7
   0FCC AD 84         [ 7] 2477 	jsr	,x
   0FCE BE`00`65      [ 6] 2478 	ldx	_Displayed_Squares+86
   0FD1 C6 08         [ 2] 2479 	ldb	#8
   0FD3 AD 84         [ 7] 2480 	jsr	,x
   0FD5 39            [ 5] 2481 	rts
   0FD6                    2482 LC8:
   0FD6 59 4F 55 20 43 4F  2483 	.byte	89,79,85,32,67,79,77,80
        4D 50
   0FDE 4C 45 54 45 44 20  2484 	.byte	76,69,84,69,68,32,84,72
        54 48
   0FE6 49 53 20 4C 45 56  2485 	.byte	73,83,32,76,69,86,69,76
        45 4C
   0FEE 80 00              2486 	.byte	-128,0
                           2487 	.globl	_SaveHighscore
   0FF0                    2488 _SaveHighscore:
   0FF0 32 7E         [ 5] 2489 	leas	-2,s
   0FF2 F6`00`02      [ 5] 2490 	ldb	_b
   0FF5 C1 02         [ 2] 2491 	cmpb	#2	;cmpqi:
   0FF7 26 06         [ 3] 2492 	bne	L103
   0FF9 F6`00`04      [ 5] 2493 	ldb	_RandomSequenceCounterDisplay
   0FFC F7`00`05      [ 5] 2494 	stb	_HighscoreNormal
   0FFF                    2495 L103:
   0FFF F6`00`02      [ 5] 2496 	ldb	_b
   1002 C1 03         [ 2] 2497 	cmpb	#3	;cmpqi:
   1004 26 06         [ 3] 2498 	bne	L104
   1006 F6`00`04      [ 5] 2499 	ldb	_RandomSequenceCounterDisplay
   1009 F7`00`06      [ 5] 2500 	stb	_HighscoreHard
   100C                    2501 L104:
   100C F6`00`02      [ 5] 2502 	ldb	_b
   100F C1 04         [ 2] 2503 	cmpb	#4	;cmpqi:
   1011 26 06         [ 3] 2504 	bne	L105
   1013 F6`00`04      [ 5] 2505 	ldb	_RandomSequenceCounterDisplay
   1016 F7`00`07      [ 5] 2506 	stb	_HighscoreExtrem
   1019                    2507 L105:
   1019 F6`00`00      [ 5] 2508 	ldb	_buttonspressedcounter
   101C C1 10         [ 2] 2509 	cmpb	#16	;cmpqi:
   101E 10 26 00 AD   [ 6] 2510 	lbne	L112
   1022 C6 88         [ 2] 2511 	ldb	#-120
   1024 E7 E2         [ 6] 2512 	stb	,-s
   1026 8E`0F`D6      [ 3] 2513 	ldx	#LC8
   1029 C6 64         [ 2] 2514 	ldb	#100
   102B BD`00`00      [ 8] 2515 	jsr	_print_string
   102E 32 61         [ 5] 2516 	leas	1,s
   1030 C6 B0         [ 2] 2517 	ldb	#-80
   1032 E7 E2         [ 6] 2518 	stb	,-s
   1034 8E`04`31      [ 3] 2519 	ldx	#LC3
   1037 C6 46         [ 2] 2520 	ldb	#70
   1039 BD`00`00      [ 8] 2521 	jsr	_print_string
   103C 32 61         [ 5] 2522 	leas	1,s
   103E C6 C4         [ 2] 2523 	ldb	#-60
   1040 E7 E2         [ 6] 2524 	stb	,-s
   1042 8E`04`41      [ 3] 2525 	ldx	#LC4
   1045 C6 32         [ 2] 2526 	ldb	#50
   1047 BD`00`00      [ 8] 2527 	jsr	_print_string
   104A 32 61         [ 5] 2528 	leas	1,s
   104C C6 B0         [ 2] 2529 	ldb	#-80
   104E E7 E2         [ 6] 2530 	stb	,-s
   1050 8E`04`4D      [ 3] 2531 	ldx	#LC5
   1053 C6 14         [ 2] 2532 	ldb	#20
   1055 BD`00`00      [ 8] 2533 	jsr	_print_string
   1058 32 61         [ 5] 2534 	leas	1,s
   105A C6 9C         [ 2] 2535 	ldb	#-100
   105C E7 E2         [ 6] 2536 	stb	,-s
   105E 8E`04`5D      [ 3] 2537 	ldx	#LC6
   1061 5F            [ 2] 2538 	clrb
   1062 BD`00`00      [ 8] 2539 	jsr	_print_string
   1065 32 61         [ 5] 2540 	leas	1,s
   1067 BD`00`00      [ 8] 2541 	jsr	___Read_Btns
   106A F6`00`00      [ 5] 2542 	ldb	_Vec_Buttons
   106D C4 02         [ 2] 2543 	andb	#2
   106F 5D            [ 2] 2544 	tstb
   1070 27 29         [ 3] 2545 	beq	L107
   1072 8E`11`B8      [ 3] 2546 	ldx	#_execute_display_sequence_state
   1075 BF`00`00      [ 6] 2547 	stx	_execute_game_playing_state
   1078 6F E4         [ 6] 2548 	clr	,s
   107A 20 0B         [ 3] 2549 	bra	L108
   107C                    2550 L109:
   107C E6 E4         [ 4] 2551 	ldb	,s
   107E 1D            [ 2] 2552 	sex		;extendqihi2: R:b -> R:d
   107F 1F 01         [ 6] 2553 	tfr	d,x
   1081 6F 89`00`7D   [10] 2554 	clr	_a_random_compare,x
   1085 6C E4         [ 6] 2555 	inc	,s
   1087                    2556 L108:
   1087 E6 E4         [ 4] 2557 	ldb	,s
   1089 C1 13         [ 2] 2558 	cmpb	#19	;cmpqi:
   108B 2F EF         [ 3] 2559 	ble	L109
   108D F6`00`04      [ 5] 2560 	ldb	_RandomSequenceCounterDisplay
   1090 BD`01`EC      [ 8] 2561 	jsr	_rand
   1093 C6 01         [ 2] 2562 	ldb	#1
   1095 F7`00`04      [ 5] 2563 	stb	_RandomSequenceCounterDisplay
   1098 7F`00`00      [ 7] 2564 	clr	_buttonspressedcounter
   109B                    2565 L107:
   109B F6`00`00      [ 5] 2566 	ldb	_Vec_Buttons
   109E C4 04         [ 2] 2567 	andb	#4
   10A0 5D            [ 2] 2568 	tstb
   10A1 27 2C         [ 3] 2569 	beq	L112
   10A3 8E`11`FE      [ 3] 2570 	ldx	#_level_init
   10A6 BF`00`00      [ 6] 2571 	stx	_execute_game_playing_state
   10A9 7F`00`02      [ 7] 2572 	clr	_b
   10AC 6F 61         [ 7] 2573 	clr	1,s
   10AE 20 0B         [ 3] 2574 	bra	L110
   10B0                    2575 L111:
   10B0 E6 61         [ 5] 2576 	ldb	1,s
   10B2 1D            [ 2] 2577 	sex		;extendqihi2: R:b -> R:d
   10B3 1F 01         [ 6] 2578 	tfr	d,x
   10B5 6F 89`00`7D   [10] 2579 	clr	_a_random_compare,x
   10B9 6C 61         [ 7] 2580 	inc	1,s
   10BB                    2581 L110:
   10BB E6 61         [ 5] 2582 	ldb	1,s
   10BD C1 13         [ 2] 2583 	cmpb	#19	;cmpqi:
   10BF 2F EF         [ 3] 2584 	ble	L111
   10C1 F6`00`04      [ 5] 2585 	ldb	_RandomSequenceCounterDisplay
   10C4 BD`01`EC      [ 8] 2586 	jsr	_rand
   10C7 C6 01         [ 2] 2587 	ldb	#1
   10C9 F7`00`04      [ 5] 2588 	stb	_RandomSequenceCounterDisplay
   10CC 7F`00`00      [ 7] 2589 	clr	_buttonspressedcounter
   10CF                    2590 L112:
   10CF 32 62         [ 5] 2591 	leas	2,s
   10D1 39            [ 5] 2592 	rts
                           2593 	.globl	_check_successfully_repeated
   10D2                    2594 _check_successfully_repeated:
   10D2 32 7C         [ 5] 2595 	leas	-4,s
   10D4 F6`00`00      [ 5] 2596 	ldb	_buttonspressedcounter
   10D7 E7 63         [ 5] 2597 	stb	3,s
   10D9 20 1E         [ 3] 2598 	bra	L114
   10DB                    2599 L116:
   10DB E6 63         [ 5] 2600 	ldb	3,s
   10DD 4F            [ 2] 2601 	clra		;zero_extendqihi: R:b -> R:d
   10DE 1F 01         [ 6] 2602 	tfr	d,x
   10E0 E6 89`00`69   [ 8] 2603 	ldb	_a_random,x
   10E4 E7 61         [ 5] 2604 	stb	1,s
   10E6 E6 63         [ 5] 2605 	ldb	3,s
   10E8 4F            [ 2] 2606 	clra		;zero_extendqihi: R:b -> R:d
   10E9 1F 01         [ 6] 2607 	tfr	d,x
   10EB E6 89`00`7D   [ 8] 2608 	ldb	_a_random_compare,x
   10EF E1 61         [ 5] 2609 	cmpb	1,s	;cmpqi:(R)
   10F1 27 06         [ 3] 2610 	beq	L114
   10F3 8E`04`70      [ 3] 2611 	ldx	#_display_game_over
   10F6 BF`00`00      [ 6] 2612 	stx	_execute_game_playing_state
   10F9                    2613 L114:
   10F9 E6 63         [ 5] 2614 	ldb	3,s
   10FB E7 E4         [ 4] 2615 	stb	,s
   10FD 6D E4         [ 6] 2616 	tst	,s
   10FF 27 04         [ 3] 2617 	beq	L115
   1101 C6 01         [ 2] 2618 	ldb	#1
   1103 E7 E4         [ 4] 2619 	stb	,s
   1105                    2620 L115:
   1105 E6 E4         [ 4] 2621 	ldb	,s
   1107 6A 63         [ 7] 2622 	dec	3,s
   1109 5D            [ 2] 2623 	tstb
   110A 26 CF         [ 3] 2624 	bne	L116
   110C F6`00`04      [ 5] 2625 	ldb	_RandomSequenceCounterDisplay
   110F E7 62         [ 5] 2626 	stb	2,s
   1111 F6`00`00      [ 5] 2627 	ldb	_buttonspressedcounter
   1114 E1 62         [ 5] 2628 	cmpb	2,s	;cmpqi:(R)
   1116 26 4B         [ 3] 2629 	bne	L118
   1118 8E`00`00      [ 3] 2630 	ldx	#_draw_square
   111B BF`00`11      [ 6] 2631 	stx	_Displayed_Squares+2
   111E 8E`00`00      [ 3] 2632 	ldx	#_draw_square
   1121 BF`00`1B      [ 6] 2633 	stx	_Displayed_Squares+12
   1124 8E`00`00      [ 3] 2634 	ldx	#_draw_square
   1127 BF`00`25      [ 6] 2635 	stx	_Displayed_Squares+22
   112A 8E`00`00      [ 3] 2636 	ldx	#_draw_square
   112D BF`00`2F      [ 6] 2637 	stx	_Displayed_Squares+32
   1130 8E`00`00      [ 3] 2638 	ldx	#_draw_square
   1133 BF`00`39      [ 6] 2639 	stx	_Displayed_Squares+42
   1136 8E`00`00      [ 3] 2640 	ldx	#_draw_square
   1139 BF`00`43      [ 6] 2641 	stx	_Displayed_Squares+52
   113C 8E`00`00      [ 3] 2642 	ldx	#_draw_square
   113F BF`00`4D      [ 6] 2643 	stx	_Displayed_Squares+62
   1142 8E`00`00      [ 3] 2644 	ldx	#_draw_square
   1145 BF`00`57      [ 6] 2645 	stx	_Displayed_Squares+72
   1148 8E`00`00      [ 3] 2646 	ldx	#_draw_square
   114B BF`00`61      [ 6] 2647 	stx	_Displayed_Squares+82
   114E F6`00`04      [ 5] 2648 	ldb	_RandomSequenceCounterDisplay
   1151 5C            [ 2] 2649 	incb
   1152 F7`00`04      [ 5] 2650 	stb	_RandomSequenceCounterDisplay
   1155 7F`00`00      [ 7] 2651 	clr	_buttonspressedcounter
   1158 C6 C8         [ 2] 2652 	ldb	#-56
   115A F7`00`0A      [ 5] 2653 	stb	_counter
   115D 8E`11`B8      [ 3] 2654 	ldx	#_execute_display_sequence_state
   1160 BF`00`00      [ 6] 2655 	stx	_execute_game_playing_state
   1163                    2656 L118:
   1163 32 64         [ 5] 2657 	leas	4,s
   1165 39            [ 5] 2658 	rts
                           2659 	.globl	_execute_repeat_sequence_state
   1166                    2660 _execute_repeat_sequence_state:
   1166 32 7D         [ 5] 2661 	leas	-3,s
   1168 BD`00`00      [ 8] 2662 	jsr	_Display_Gamefield
   116B BD`02`CD      [ 8] 2663 	jsr	_Display_TimeLeft
   116E BD`03`E7      [ 8] 2664 	jsr	_Display_Player
   1171 F6`00`00      [ 5] 2665 	ldb	_buttonspressedcounter
   1174 E7 61         [ 5] 2666 	stb	1,s
   1176 F6`00`04      [ 5] 2667 	ldb	_RandomSequenceCounterDisplay
   1179 E7 62         [ 5] 2668 	stb	2,s
   117B F6`00`00      [ 5] 2669 	ldb	_buttonspressedcounter
   117E E7 E4         [ 4] 2670 	stb	,s
   1180 E6 62         [ 5] 2671 	ldb	2,s
   1182 E0 E4         [ 4] 2672 	subb	,s
   1184 E7 E4         [ 4] 2673 	stb	,s
   1186 E6 61         [ 5] 2674 	ldb	1,s
   1188 34 04         [ 6] 2675 	pshs	b
   118A E6 61         [ 5] 2676 	ldb	1,s
   118C BD`02`E6      [ 8] 2677 	jsr	_Display_LevelAdvancement
   118F 32 61         [ 5] 2678 	leas	1,s
   1191 F6`00`02      [ 5] 2679 	ldb	_b
   1194 C1 03         [ 2] 2680 	cmpb	#3	;cmpqi:
   1196 26 03         [ 3] 2681 	bne	L120
   1198 BD`0C`7F      [ 8] 2682 	jsr	_Set_traps
   119B                    2683 L120:
   119B F6`00`02      [ 5] 2684 	ldb	_b
   119E C1 04         [ 2] 2685 	cmpb	#4	;cmpqi:
   11A0 26 03         [ 3] 2686 	bne	L121
   11A2 BD`0F`59      [ 8] 2687 	jsr	_Add_Movement
   11A5                    2688 L121:
   11A5 F6`00`08      [ 5] 2689 	ldb	_Random_Number_for_random_things
   11A8 5C            [ 2] 2690 	incb
   11A9 F7`00`08      [ 5] 2691 	stb	_Random_Number_for_random_things
   11AC BD`05`49      [ 8] 2692 	jsr	_move_player
   11AF BD`0B`48      [ 8] 2693 	jsr	_read_player_input
   11B2 BD`10`D2      [ 8] 2694 	jsr	_check_successfully_repeated
   11B5 32 63         [ 5] 2695 	leas	3,s
   11B7 39            [ 5] 2696 	rts
                           2697 	.globl	_execute_display_sequence_state
   11B8                    2698 _execute_display_sequence_state:
   11B8 BD`00`00      [ 8] 2699 	jsr	_Display_Gamefield
   11BB BD`03`3C      [ 8] 2700 	jsr	_Display_RandomSequence
   11BE 8E`11`66      [ 3] 2701 	ldx	#_execute_repeat_sequence_state
   11C1 BF`00`00      [ 6] 2702 	stx	_execute_game_playing_state
   11C4 39            [ 5] 2703 	rts
   11C5                    2704 LC9:
   11C5 53 45 4C 45 43 54  2705 	.byte	83,69,76,69,67,84,32,84
        20 54
   11CD 48 45 20 47 41 4D  2706 	.byte	72,69,32,71,65,77,69,77
        45 4D
   11D5 4F 44 45 80 00     2707 	.byte	79,68,69,-128,0
   11DA                    2708 LC10:
   11DA 4E 4F 52 4D 41 4C  2709 	.byte	78,79,82,77,65,76,32,49
        20 31
   11E2 36 2F 80 00        2710 	.byte	54,47,-128,0
   11E6                    2711 LC11:
   11E6 48 41 52 44 20 20  2712 	.byte	72,65,82,68,32,32,32,49
        20 31
   11EE 36 2F 80 00        2713 	.byte	54,47,-128,0
   11F2                    2714 LC12:
   11F2 45 58 54 52 45 4D  2715 	.byte	69,88,84,82,69,77,32,49
        20 31
   11FA 36 2F 80 00        2716 	.byte	54,47,-128,0
                           2717 	.globl	_level_init
   11FE                    2718 _level_init:
   11FE 32 7D         [ 5] 2719 	leas	-3,s
   1200 C6 01         [ 2] 2720 	ldb	#1
   1202 F7`00`00      [ 5] 2721 	stb	_Vec_Joy_Mux_1_X
   1205 C6 03         [ 2] 2722 	ldb	#3
   1207 F7`00`00      [ 5] 2723 	stb	_Vec_Joy_Mux_1_Y
   120A 7F`00`00      [ 7] 2724 	clr	_Vec_Joy_Mux_2_X
   120D 7F`00`00      [ 7] 2725 	clr	_Vec_Joy_Mux_2_Y
   1210 6F E4         [ 6] 2726 	clr	,s
   1212 C6 01         [ 2] 2727 	ldb	#1
   1214 E7 61         [ 5] 2728 	stb	1,s
   1216 C6 01         [ 2] 2729 	ldb	#1
   1218 E7 62         [ 5] 2730 	stb	2,s
   121A 16 00 E4      [ 5] 2731 	lbra	L126
   121D                    2732 L133:
   121D BD`00`00      [ 8] 2733 	jsr	___Read_Btns
   1220 6C E4         [ 6] 2734 	inc	,s
   1222 BD`00`00      [ 8] 2735 	jsr	___Reset0Ref
   1225 C6 88         [ 2] 2736 	ldb	#-120
   1227 E7 E2         [ 6] 2737 	stb	,-s
   1229 8E`11`C5      [ 3] 2738 	ldx	#LC9
   122C C6 64         [ 2] 2739 	ldb	#100
   122E BD`00`00      [ 8] 2740 	jsr	_print_string
   1231 32 61         [ 5] 2741 	leas	1,s
   1233 C6 CE         [ 2] 2742 	ldb	#-50
   1235 E7 E2         [ 6] 2743 	stb	,-s
   1237 8E`11`DA      [ 3] 2744 	ldx	#LC10
   123A C6 3C         [ 2] 2745 	ldb	#60
   123C BD`00`00      [ 8] 2746 	jsr	_print_string
   123F 32 61         [ 5] 2747 	leas	1,s
   1241 C6 CE         [ 2] 2748 	ldb	#-50
   1243 E7 E2         [ 6] 2749 	stb	,-s
   1245 8E`11`E6      [ 3] 2750 	ldx	#LC11
   1248 C6 28         [ 2] 2751 	ldb	#40
   124A BD`00`00      [ 8] 2752 	jsr	_print_string
   124D 32 61         [ 5] 2753 	leas	1,s
   124F C6 CE         [ 2] 2754 	ldb	#-50
   1251 E7 E2         [ 6] 2755 	stb	,-s
   1253 8E`11`F2      [ 3] 2756 	ldx	#LC12
   1256 C6 14         [ 2] 2757 	ldb	#20
   1258 BD`00`00      [ 8] 2758 	jsr	_print_string
   125B 32 61         [ 5] 2759 	leas	1,s
   125D BD`00`00      [ 8] 2760 	jsr	___Reset0Ref
   1260 F6`00`05      [ 5] 2761 	ldb	_HighscoreNormal
   1263 34 04         [ 6] 2762 	pshs	b
   1265 C6 3C         [ 2] 2763 	ldb	#60
   1267 E7 E2         [ 6] 2764 	stb	,-s
   1269 C6 3C         [ 2] 2765 	ldb	#60
   126B BD`00`00      [ 8] 2766 	jsr	_print_unsigned_int2
   126E 32 62         [ 5] 2767 	leas	2,s
   1270 F6`00`06      [ 5] 2768 	ldb	_HighscoreHard
   1273 34 04         [ 6] 2769 	pshs	b
   1275 C6 3C         [ 2] 2770 	ldb	#60
   1277 E7 E2         [ 6] 2771 	stb	,-s
   1279 C6 28         [ 2] 2772 	ldb	#40
   127B BD`00`00      [ 8] 2773 	jsr	_print_unsigned_int2
   127E 32 62         [ 5] 2774 	leas	2,s
   1280 F6`00`07      [ 5] 2775 	ldb	_HighscoreExtrem
   1283 34 04         [ 6] 2776 	pshs	b
   1285 C6 3C         [ 2] 2777 	ldb	#60
   1287 E7 E2         [ 6] 2778 	stb	,-s
   1289 C6 14         [ 2] 2779 	ldb	#20
   128B BD`00`00      [ 8] 2780 	jsr	_print_unsigned_int2
   128E 32 62         [ 5] 2781 	leas	2,s
   1290 BD`00`00      [ 8] 2782 	jsr	___Read_Btns
   1293 BD`00`00      [ 8] 2783 	jsr	___Joy_Digital
   1296 F6`00`00      [ 5] 2784 	ldb	_Vec_Joy_1_Y
   1299 5D            [ 2] 2785 	tstb
   129A 26 04         [ 3] 2786 	bne	L127
   129C C6 01         [ 2] 2787 	ldb	#1
   129E E7 62         [ 5] 2788 	stb	2,s
   12A0                    2789 L127:
   12A0 F6`00`00      [ 5] 2790 	ldb	_Vec_Joy_1_Y
   12A3 5D            [ 2] 2791 	tstb
   12A4 2F 0E         [ 3] 2792 	ble	L128
   12A6 6D 61         [ 7] 2793 	tst	1,s
   12A8 27 0A         [ 3] 2794 	beq	L128
   12AA E6 62         [ 5] 2795 	ldb	2,s
   12AC C1 01         [ 2] 2796 	cmpb	#1	;cmpqi:
   12AE 26 04         [ 3] 2797 	bne	L128
   12B0 6A 62         [ 7] 2798 	dec	2,s
   12B2 6A 61         [ 7] 2799 	dec	1,s
   12B4                    2800 L128:
   12B4 F6`00`00      [ 5] 2801 	ldb	_Vec_Joy_1_Y
   12B7 5D            [ 2] 2802 	tstb
   12B8 2C 10         [ 3] 2803 	bge	L129
   12BA E6 61         [ 5] 2804 	ldb	1,s
   12BC C1 01         [ 2] 2805 	cmpb	#1	;cmpqi:
   12BE 22 0A         [ 3] 2806 	bhi	L129
   12C0 E6 62         [ 5] 2807 	ldb	2,s
   12C2 C1 01         [ 2] 2808 	cmpb	#1	;cmpqi:
   12C4 26 04         [ 3] 2809 	bne	L129
   12C6 6A 62         [ 7] 2810 	dec	2,s
   12C8 6C 61         [ 7] 2811 	inc	1,s
   12CA                    2812 L129:
   12CA E6 61         [ 5] 2813 	ldb	1,s
   12CC BD`00`00      [ 8] 2814 	jsr	_draw_menu_arrow
   12CF F6`00`00      [ 5] 2815 	ldb	_Vec_Buttons
   12D2 C4 01         [ 2] 2816 	andb	#1
   12D4 5D            [ 2] 2817 	tstb
   12D5 27 2A         [ 3] 2818 	beq	L126
   12D7 6D 61         [ 7] 2819 	tst	1,s
   12D9 26 07         [ 3] 2820 	bne	L130
   12DB C6 02         [ 2] 2821 	ldb	#2
   12DD F7`00`02      [ 5] 2822 	stb	_b
   12E0 20 1F         [ 3] 2823 	bra	L126
   12E2                    2824 L130:
   12E2 E6 61         [ 5] 2825 	ldb	1,s
   12E4 C1 01         [ 2] 2826 	cmpb	#1	;cmpqi:
   12E6 26 07         [ 3] 2827 	bne	L131
   12E8 C6 03         [ 2] 2828 	ldb	#3
   12EA F7`00`02      [ 5] 2829 	stb	_b
   12ED 20 12         [ 3] 2830 	bra	L126
   12EF                    2831 L131:
   12EF E6 61         [ 5] 2832 	ldb	1,s
   12F1 C1 02         [ 2] 2833 	cmpb	#2	;cmpqi:
   12F3 26 07         [ 3] 2834 	bne	L132
   12F5 C6 04         [ 2] 2835 	ldb	#4
   12F7 F7`00`02      [ 5] 2836 	stb	_b
   12FA 20 05         [ 3] 2837 	bra	L126
   12FC                    2838 L132:
   12FC C6 02         [ 2] 2839 	ldb	#2
   12FE F7`00`02      [ 5] 2840 	stb	_b
   1301                    2841 L126:
   1301 F6`00`02      [ 5] 2842 	ldb	_b
   1304 C1 01         [ 2] 2843 	cmpb	#1	;cmpqi:
   1306 10 2F FF 13   [ 6] 2844 	lble	L133
   130A E6 E4         [ 4] 2845 	ldb	,s
   130C BD`01`EC      [ 8] 2846 	jsr	_rand
   130F 7F`00`0E      [ 7] 2847 	clr	_current_level
   1312 8E`11`B8      [ 3] 2848 	ldx	#_execute_display_sequence_state
   1315 BF`00`00      [ 6] 2849 	stx	_execute_game_playing_state
   1318 32 63         [ 5] 2850 	leas	3,s
   131A 39            [ 5] 2851 	rts
                           2852 	.globl	_level_play
   131B                    2853 _level_play:
   131B 32 7C         [ 5] 2854 	leas	-4,s
   131D 20 25         [ 3] 2855 	bra	L136
   131F                    2856 L137:
   131F BD`00`00      [ 8] 2857 	jsr	___DP_to_C8
   1322 BE`00`00      [ 6] 2858 	ldx	_current_explosion
   1325 AF E4         [ 5] 2859 	stx	,s
   1327 AE E4         [ 5] 2860 	ldx	,s
   1329 BD`00`00      [ 8] 2861 	jsr	__Explosion_Snd
   132C BE`00`00      [ 6] 2862 	ldx	_current_music
   132F AF 62         [ 6] 2863 	stx	2,s
   1331 AE 62         [ 6] 2864 	ldx	2,s
   1333 BD`00`00      [ 8] 2865 	jsr	__Init_Music_chk
   1336 BD`00`00      [ 8] 2866 	jsr	___Wait_Recal
   1339 BD`00`00      [ 8] 2867 	jsr	__Do_Sound
   133C BD`00`00      [ 8] 2868 	jsr	___Intensity_5F
   133F BE`00`00      [ 6] 2869 	ldx	_execute_game_playing_state
   1342 AD 84         [ 7] 2870 	jsr	,x
   1344                    2871 L136:
   1344 F6`00`0E      [ 5] 2872 	ldb	_current_level
   1347 5D            [ 2] 2873 	tstb
   1348 27 D5         [ 3] 2874 	beq	L137
   134A 32 64         [ 5] 2875 	leas	4,s
   134C 39            [ 5] 2876 	rts
ASxxxx Assembler V05.50  (Motorola 6809)                                Page 1
Hexadecimal [16-Bits]                                 Mon Jun 16 04:11:00 2025

Symbol Table

    .__.$$$.       =   2710 L   |     .__.ABS.       =   0000 G
    .__.CPU.       =   0000 L   |     .__.H$L.       =   0001 L
  2 L10                02C2 R   |   2 L103               0FFF R
  2 L104               100C R   |   2 L105               1019 R
  2 L107               109B R   |   2 L108               1087 R
  2 L109               107C R   |   2 L11                027A R
  2 L110               10BB R   |   2 L111               10B0 R
  2 L112               10CF R   |   2 L114               10F9 R
  2 L115               1105 R   |   2 L116               10DB R
  2 L118               1163 R   |   2 L120               119B R
  2 L121               11A5 R   |   2 L126               1301 R
  2 L127               12A0 R   |   2 L128               12B4 R
  2 L129               12CA R   |   2 L130               12E2 R
  2 L131               12EF R   |   2 L132               12FC R
  2 L133               121D R   |   2 L136               1344 R
  2 L137               131F R   |   2 L14                02DE R
  2 L17                02F4 R   |   2 L18                0300 R
  2 L19                02EC R   |   2 L2                 01E3 R
  2 L20                030E R   |   2 L21                031A R
  2 L22                0309 R   |   2 L25                03DA R
  2 L26                03C4 R   |   2 L27                0343 R
  2 L3                 01B8 R   |   2 L33                04C4 R
  2 L34                04D1 R   |   2 L35                04DE R
  2 L36                0512 R   |   2 L37                04FE R
  2 L38                04F3 R   |   2 L40                0532 R
  2 L41                0527 R   |   2 L42                0546 R
  2 L44                05B5 R   |   2 L45                05FF R
  2 L46                065C R   |   2 L47                06AB R
  2 L48                0709 R   |   2 L49                0759 R
  2 L50                07B7 R   |   2 L51                0807 R
  2 L52                0865 R   |   2 L53                08B5 R
  2 L54                0913 R   |   2 L55                095D R
  2 L56                09B5 R   |   2 L57                09FF R
  2 L58                0A57 R   |   2 L59                0AA1 R
  2 L6                 0267 R   |   2 L60                0AF9 R
  2 L62                0B43 R   |   2 L64                0B79 R
  2 L65                0B7F R   |   2 L66                0B92 R
  2 L67                0B98 R   |   2 L68                0BAB R
  2 L69                0BB1 R   |   2 L7                 01F5 R
  2 L70                0BC4 R   |   2 L71                0BCA R
  2 L72                0BDD R   |   2 L73                0BE3 R
  2 L74                0BF6 R   |   2 L75                0BFC R
  2 L76                0C0F R   |   2 L77                0C15 R
  2 L78                0C28 R   |   2 L79                0C2E R
  2 L80                0C41 R   |   2 L81                0C47 R
  2 L83                0C6B R   |   2 L85                0CB1 R
  2 L87                0CE0 R   |   2 L90                0D7B R
  2 L93                0E19 R   |   2 L96                0EB7 R
  2 L99                0F55 R   |   2 LC0                0324 R
  2 LC1                0332 R   |   2 LC10               11DA R
  2 LC11               11E6 R   |   2 LC12               11F2 R
  2 LC2                0426 R   |   2 LC3                0431 R
  2 LC4                0441 R   |   2 LC5                044D R
  2 LC6                045D R   |   2 LC7                0C6E R
  2 LC8                0FD6 R   |   2 LC9                11C5 R
  2 _Add_Movement      0F59 GR  |   2 _Brainleft         012B GR
  2 _Brainright        00A7 GR  |     _Display_Gamef     **** GX
  2 _Display_Level     02E6 GR  |   2 _Display_Playe     03E7 GR
  2 _Display_Rando     033C GR  |   2 _Display_TimeL     02CD GR
  3 _Displayed_Squ     000F GR  |   2 _Gamefield         007A GR
  3 _HighscoreExtr     0007 GR  |   3 _HighscoreHard     0006 GR
  3 _HighscoreNorm     0005 GR  |   2 _Level_advance     0000 GR
    _Lifeline          **** GX  |   2 _Lifelinestruc     0089 GR
  2 _Positions_Arr     019A GR  |   2 _RandomNumberG     01B2 GR
  3 _RandomSequenc     0003 GR  |   3 _RandomSequenc     0004 GR
  3 _Random_Number     0008 GR  |   2 _SaveHighscore     0FF0 GR
  3 _SequenceTime      0009 GR  |   2 _Set_traps         0C7F GR
    _Vec_Buttons       **** GX  |     _Vec_Joy_1_X       **** GX
    _Vec_Joy_1_Y       **** GX  |     _Vec_Joy_Mux_1     **** GX
    _Vec_Joy_Mux_1     **** GX  |     _Vec_Joy_Mux_2     **** GX
    _Vec_Joy_Mux_2     **** GX  |     __Do_Sound         **** GX
    __Explosion_Sn     **** GX  |     __Init_Music_c     **** GX
    ___DP_to_C8        **** GX  |     ___Intensity_5     **** GX
    ___Joy_Digital     **** GX  |     ___Read_Btns       **** GX
    ___Reset0Ref       **** GX  |     ___Wait_Recal      **** GX
  3 _a_random          0069 GR  |   3 _a_random_comp     007D GR
  2 _add_square_x      0CE1 GR  |   2 _add_square_y      0D7F GR
  2 _advancement_c     005C GR  |   2 _advancement_p     006B GR
  2 _arrow             01A0 GR  |   3 _b                 0002 GR
  3 _buttonspresse     0000 GR  |   2 _check_success     10D2 GR
  3 _counter           000A GR  |   2 _cross             0020 GR
    _current_explo     **** GX  |   3 _current_level     000E GR
    _current_music     **** GX  |   2 _display_game_     0470 GR
    _draw_menu_arr     **** GX  |     _draw_round_ad     **** GX
    _draw_round_ad     **** GX  |     _draw_square       **** GX
    _draw_square_f     **** GX  |   2 _execute_displ     11B8 GR
  4 _execute_game_     0000 GR  |   2 _execute_repea     1166 GR
  3 _joy_x             000B GR  |   3 _joy_y             000C GR
  2 _level_init        11FE GR  |   2 _level_play        131B GR
  2 _move_player       0549 GR  |     _play_tune         **** GX
    _print_string      **** GX  |     _print_unsigne     **** GX
  2 _rand              01EC GR  |   2 _rand2             0272 GR
  2 _read_player_i     0B48 GR  |   3 _sneakyoffset      0001 GR
  2 _square            002F GR  |   2 _square_filled     0041 GR
  2 _sub_square_x      0E1D GR  |   2 _sub_square_y      0EBB GR
  3 _temppass          000D GR  |     _umodhi3           **** GX

ASxxxx Assembler V05.50  (Motorola 6809)                                Page 2
Hexadecimal [16-Bits]                                 Mon Jun 16 04:11:00 2025

Area Table

[_CSEG]
   0 _CODE            size    0   flags C080
   2 .text            size 134D   flags  100
   3 .data            size   91   flags  100
   4 .bss             size    2   flags    0
[_DSEG]
   1 _DATA            size    0   flags C0C0

