                              1 ;;; gcc for m6809 : Mar 17 2019 13:25:32
                              2 ;;; 4.3.6 (gcc6809)
                              3 ;;; ABI version 1
                              4 ;;; -mabi=bx -mint8 -fomit-frame-pointer -O3
                              5 	.module	assert.c
                              6 	.globl	_yy0
                              7 	.area	.text
   0000                       8 _yy0:
   0000 5A                    9 	.byte	90
                             10 	.globl	_xx0
   0001                      11 _xx0:
   0001 88                   12 	.byte	-120
                             13 	.globl	_mm0
   0002                      14 _mm0:
   0002 41 53 53 45 52 54    15 	.byte	65,83,83,69,82,84,32,70
        20 46
   000A 41 49 4C 45 44 3A    16 	.byte	65,73,76,69,68,58,-128,0
        80 00
                             17 ;----- asm -----
                     0011    18 	. = . - 1
                             19 	
                             20 ;--- end asm ---
                             21 	.globl	_yy1
   0011                      22 _yy1:
   0011 28                   23 	.byte	40
                             24 	.globl	_xx1
   0012                      25 _xx1:
   0012 88                   26 	.byte	-120
                             27 	.globl	_mm1
   0013                      28 _mm1:
   0013 46 49 4C 45 3A 80    29 	.byte	70,73,76,69,58,-128,0
        00
                             30 ;----- asm -----
                     0019    31 	. = . - 1
                             32 	
                             33 ;--- end asm ---
                             34 	.globl	_yy2
   0019                      35 _yy2:
   0019 F6                   36 	.byte	-10
                             37 	.globl	_xx2
   001A                      38 _xx2:
   001A 88                   39 	.byte	-120
                             40 	.globl	_mm2
   001B                      41 _mm2:
   001B 46 55 4E 43 54 49    42 	.byte	70,85,78,67,84,73,79,78
        4F 4E
   0023 3A 80 00             43 	.byte	58,-128,0
                             44 ;----- asm -----
                     0025    45 	. = . - 1
                             46 	
                             47 ;--- end asm ---
                             48 	.globl	_yy3
   0025                      49 _yy3:
   0025 C4                   50 	.byte	-60
                             51 	.globl	_xx3
   0026                      52 _xx3:
   0026 88                   53 	.byte	-120
                             54 	.globl	_mm3
   0027                      55 _mm3:
   0027 4C 49 4E 45 3A 80    56 	.byte	76,73,78,69,58,-128,0
        00
                             57 	.globl	__f_assert_failed
   002E                      58 __f_assert_failed:
   002E 34 60         [ 7]   59 	pshs	y,u
   0030 32 E8 DC      [ 5]   60 	leas	-36,s
   0033 33 E4         [ 4]   61 	leau	,s
   0035 AF 42         [ 6]   62 	stx	2,u
   0037 E7 49         [ 5]   63 	stb	9,u
   0039 10 EF 45      [ 7]   64 	sts	5,u
   003C BE`00`00      [ 6]   65 	ldx	_Vec_Text_HW
   003F AF C8 10      [ 6]   66 	stx	16,u
   0042 10 8E F8 50   [ 4]   67 	ldy	#-1968
   0046 10 BF`00`00   [ 7]   68 	sty	_Vec_Text_HW
   004A BD`00`00      [ 8]   69 	jsr	___Clear_Sound
   004D E6 49         [ 5]   70 	ldb	9,u
   004F 4F            [ 2]   71 	clra		;zero_extendqihi: R:b -> R:d
   0050 1F 01         [ 6]   72 	tfr	d,x
   0052 EC 42         [ 6]   73 	ldd	2,u
   0054 31 8B         [ 8]   74 	leay	d,x
   0056 E6 A2         [ 6]   75 	ldb	,-y
   0058 C1 5C         [ 2]   76 	cmpb	#92	;cmpqi:
   005A 10 27 02 22   [ 6]   77 	lbeq	L2
   005E C1 2F         [ 2]   78 	cmpb	#47	;cmpqi:
   0060 10 27 02 1C   [ 6]   79 	lbeq	L2
   0064 10 AC 42      [ 8]   80 	cmpy	2,u	;cmphi:
   0067 10 27 02 15   [ 6]   81 	lbeq	L2
   006B 30 A4         [ 4]   82 	leax	,y
   006D 20 08         [ 3]   83 	bra	L4
   006F                      84 L31:
   006F C1 2F         [ 2]   85 	cmpb	#47	;cmpqi:
   0071 27 25         [ 3]   86 	beq	L3
   0073 AC 42         [ 7]   87 	cmpx	2,u	;cmphi:
   0075 27 21         [ 3]   88 	beq	L3
   0077                      89 L4:
   0077 1F 20         [ 6]   90 	tfr	y,d	;movlsbqihi: R:y -> R:b
   0079 E7 44         [ 5]   91 	stb	4,u
   007B 1F 10         [ 6]   92 	tfr	x,d	;movlsbqihi: R:x -> R:b
   007D E7 C8 17      [ 5]   93 	stb	23,u
   0080 E6 44         [ 5]   94 	ldb	4,u
   0082 E0 C8 17      [ 5]   95 	subb	23,u
   0085 E7 C8 18      [ 5]   96 	stb	24,u
   0088 6C 44         [ 7]   97 	inc	4,u
   008A E6 44         [ 5]   98 	ldb	4,u
   008C E0 C8 17      [ 5]   99 	subb	23,u
   008F E7 C8 19      [ 5]  100 	stb	25,u
   0092 E6 82         [ 6]  101 	ldb	,-x
   0094 C1 5C         [ 2]  102 	cmpb	#92	;cmpqi:
   0096 26 D7         [ 3]  103 	bne	L31
   0098                     104 L3:
   0098 E6 C8 19      [ 5]  105 	ldb	25,u
   009B 4F            [ 2]  106 	clra		;zero_extendqihi: R:b -> R:d
   009C 1F 02         [ 6]  107 	tfr	d,y
   009E 1F 40         [ 6]  108 	tfr	s,d
   00A0 34 20         [ 6]  109 	pshs	y	;subhi: R:d -= R:y
   00A2 A3 E1         [ 9]  110 	subd	,s++
   00A4 1F 04         [ 6]  111 	tfr	d,s
   00A6 10 EF 4A      [ 7]  112 	sts	10,u
   00A9 6D C8 18      [ 7]  113 	tst	24,u
   00AC 27 4E         [ 3]  114 	beq	L5
   00AE 31 84         [ 4]  115 	leay	,x
   00B0                     116 L6:
   00B0 10 AF 42      [ 7]  117 	sty	2,u
   00B3                     118 L8:
   00B3 1F 20         [ 6]  119 	tfr	y,d	;movlsbqihi: R:y -> R:b
   00B5 E7 C8 16      [ 5]  120 	stb	22,u
   00B8 E6 43         [ 5]  121 	ldb	3,u	;movlsbqihi: msb:2,u -> R:b
   00BA E0 C8 16      [ 5]  122 	subb	22,u
   00BD E7 C8 1C      [ 5]  123 	stb	28,u
   00C0 AE 42         [ 6]  124 	ldx	2,u
   00C2 30 01         [ 5]  125 	leax	1,x
   00C4 AF 42         [ 6]  126 	stx	2,u
   00C6 E6 84         [ 4]  127 	ldb	,x
   00C8 E7 C8 13      [ 5]  128 	stb	19,u
   00CB CB 9F         [ 2]  129 	addb	#-97
   00CD C1 19         [ 2]  130 	cmpb	#25	;cmpqi:
   00CF 22 08         [ 3]  131 	bhi	L7
   00D1 E6 C8 13      [ 5]  132 	ldb	19,u
   00D4 CB E0         [ 2]  133 	addb	#-32
   00D6 E7 C8 13      [ 5]  134 	stb	19,u
   00D9                     135 L7:
   00D9 E6 C8 1C      [ 5]  136 	ldb	28,u
   00DC 4F            [ 2]  137 	clra		;zero_extendqihi: R:b -> R:d
   00DD ED C4         [ 5]  138 	std	,u
   00DF 1F 01         [ 6]  139 	tfr	d,x
   00E1 1E 01         [ 8]  140 	exg	d,x
   00E3 E3 4A         [ 7]  141 	addd	10,u; addhi3,3
   00E5 1E 01         [ 8]  142 	exg	d,x
   00E7 E6 C8 13      [ 5]  143 	ldb	19,u
   00EA E7 84         [ 4]  144 	stb	,x
   00EC E6 43         [ 5]  145 	ldb	3,u	;movlsbqihi: msb:2,u -> R:b
   00EE E0 C8 16      [ 5]  146 	subb	22,u
   00F1 E7 C8 16      [ 5]  147 	stb	22,u
   00F4 E6 C8 18      [ 5]  148 	ldb	24,u
   00F7 E1 C8 16      [ 5]  149 	cmpb	22,u	;cmpqi:
   00FA 22 B7         [ 3]  150 	bhi	L8
   00FC                     151 L5:
   00FC E6 C8 18      [ 5]  152 	ldb	24,u
   00FF 4F            [ 2]  153 	clra		;zero_extendqihi: R:b -> R:d
   0100 ED C4         [ 5]  154 	std	,u
   0102 1F 01         [ 6]  155 	tfr	d,x
   0104 1E 01         [ 8]  156 	exg	d,x
   0106 E3 4A         [ 7]  157 	addd	10,u; addhi3,3
   0108 1E 01         [ 8]  158 	exg	d,x
   010A C6 80         [ 2]  159 	ldb	#-128
   010C E7 84         [ 4]  160 	stb	,x
   010E 30 C8 1D      [ 5]  161 	leax	29,u
   0111 BD`00`00      [ 8]  162 	jsr	___Clear_Score
   0114 AE C8 2A      [ 6]  163 	ldx	42,u
   0117 8C 00 FF      [ 4]  164 	cmpx	#255	;cmphi:
   011A 23 17         [ 3]  165 	bls	L9
   011C                     166 L23:
   011C 30 C8 1D      [ 5]  167 	leax	29,u
   011F C6 FF         [ 2]  168 	ldb	#-1
   0121 BD`00`00      [ 8]  169 	jsr	__Add_Score_a
   0124 EC C8 2A      [ 6]  170 	ldd	42,u
   0127 C3 FF 01      [ 4]  171 	addd	#-255; addhi3,3
   012A ED C8 2A      [ 6]  172 	std	42,u
   012D 10 83 00 FF   [ 5]  173 	cmpd	#255	;cmphi:
   0131 22 E9         [ 3]  174 	bhi	L23
   0133                     175 L9:
   0133 30 C8 1D      [ 5]  176 	leax	29,u
   0136 E6 C8 2B      [ 5]  177 	ldb	43,u	;movlsbqihi: msb:42,u -> R:b
   0139 BD`00`00      [ 8]  178 	jsr	__Add_Score_a
   013C 6F C8 12      [ 7]  179 	clr	18,u
   013F E6 C8 12      [ 5]  180 	ldb	18,u
   0142 20 05         [ 3]  181 	bra	L12
   0144                     182 L32:
   0144 E6 44         [ 5]  183 	ldb	4,u
   0146 E7 C8 12      [ 5]  184 	stb	18,u
   0149                     185 L12:
   0149 5C            [ 2]  186 	incb
   014A E7 44         [ 5]  187 	stb	4,u
   014C E6 C8 12      [ 5]  188 	ldb	18,u
   014F 4F            [ 2]  189 	clra		;zero_extendqihi: R:b -> R:d
   0150 ED 47         [ 6]  190 	std	7,u
   0152 AE C8 2C      [ 6]  191 	ldx	44,u
   0155 30 8B         [ 8]  192 	leax	d,x
   0157 6D 84         [ 6]  193 	tst	,x
   0159 26 E9         [ 3]  194 	bne	L32
   015B E6 44         [ 5]  195 	ldb	4,u
   015D 4F            [ 2]  196 	clra		;zero_extendqihi: R:b -> R:d
   015E 1F 01         [ 6]  197 	tfr	d,x
   0160 1F 40         [ 6]  198 	tfr	s,d
   0162 34 10         [ 6]  199 	pshs	x	;subhi: R:d -= R:x
   0164 A3 E1         [ 9]  200 	subd	,s++
   0166 1F 04         [ 6]  201 	tfr	d,s
   0168 10 EF 4C      [ 7]  202 	sts	12,u
   016B EC 47         [ 6]  203 	ldd	7,u
   016D 30 EB         [ 8]  204 	leax	d,s
   016F C6 80         [ 2]  205 	ldb	#-128
   0171 E7 84         [ 4]  206 	stb	,x
   0173 E6 C8 12      [ 5]  207 	ldb	18,u
   0176 5A            [ 2]  208 	decb
   0177 E7 C8 1A      [ 5]  209 	stb	26,u
   017A C1 FF         [ 2]  210 	cmpb	#-1	;cmpqi:
   017C 27 38         [ 3]  211 	beq	L13
   017E                     212 L22:
   017E 4F            [ 2]  213 	clra		;zero_extendqihi: R:b -> R:d
   017F ED C4         [ 5]  214 	std	,u
   0181 AE C8 2C      [ 6]  215 	ldx	44,u
   0184 30 8B         [ 8]  216 	leax	d,x
   0186 E6 84         [ 4]  217 	ldb	,x
   0188 E7 C8 14      [ 5]  218 	stb	20,u
   018B CB 9F         [ 2]  219 	addb	#-97
   018D C1 19         [ 2]  220 	cmpb	#25	;cmpqi:
   018F 22 08         [ 3]  221 	bhi	L14
   0191 E6 C8 14      [ 5]  222 	ldb	20,u
   0194 CB E0         [ 2]  223 	addb	#-32
   0196 E7 C8 14      [ 5]  224 	stb	20,u
   0199                     225 L14:
   0199 E6 C8 1A      [ 5]  226 	ldb	26,u
   019C 4F            [ 2]  227 	clra		;zero_extendqihi: R:b -> R:d
   019D ED C4         [ 5]  228 	std	,u
   019F 1F 01         [ 6]  229 	tfr	d,x
   01A1 1E 01         [ 8]  230 	exg	d,x
   01A3 E3 4C         [ 7]  231 	addd	12,u; addhi3,3
   01A5 1E 01         [ 8]  232 	exg	d,x
   01A7 E6 C8 14      [ 5]  233 	ldb	20,u
   01AA E7 84         [ 4]  234 	stb	,x
   01AC 6A C8 1A      [ 7]  235 	dec	26,u
   01AF E6 C8 1A      [ 5]  236 	ldb	26,u
   01B2 C1 FF         [ 2]  237 	cmpb	#-1	;cmpqi:
   01B4 26 C8         [ 3]  238 	bne	L22
   01B6                     239 L13:
   01B6 E6 C8 30      [ 5]  240 	ldb	48,u
   01B9 4F            [ 2]  241 	clra		;zero_extendqihi: R:b -> R:d
   01BA 1F 01         [ 6]  242 	tfr	d,x
   01BC 1F 40         [ 6]  243 	tfr	s,d
   01BE 34 10         [ 6]  244 	pshs	x	;subhi: R:d -= R:x
   01C0 A3 E1         [ 9]  245 	subd	,s++
   01C2 1F 04         [ 6]  246 	tfr	d,s
   01C4 31 E4         [ 4]  247 	leay	,s
   01C6 6D C8 30      [ 7]  248 	tst	48,u
   01C9 27 49         [ 3]  249 	beq	L16
   01CB 8E 00 00      [ 3]  250 	ldx	#0
   01CE AF 42         [ 6]  251 	stx	2,u
   01D0                     252 L19:
   01D0 EC 42         [ 6]  253 	ldd	2,u
   01D2 E7 C8 1B      [ 5]  254 	stb	27,u	;movlsbqihi: R:d -> 27,u
   01D5 AE C8 2E      [ 6]  255 	ldx	46,u
   01D8 30 8B         [ 8]  256 	leax	d,x
   01DA E6 84         [ 4]  257 	ldb	,x
   01DC E7 C8 15      [ 5]  258 	stb	21,u
   01DF CB 9F         [ 2]  259 	addb	#-97
   01E1 C1 19         [ 2]  260 	cmpb	#25	;cmpqi:
   01E3 22 08         [ 3]  261 	bhi	L17
   01E5 E6 C8 15      [ 5]  262 	ldb	21,u
   01E8 CB E0         [ 2]  263 	addb	#-32
   01EA E7 C8 15      [ 5]  264 	stb	21,u
   01ED                     265 L17:
   01ED E6 C8 15      [ 5]  266 	ldb	21,u
   01F0 CB E0         [ 2]  267 	addb	#-32
   01F2 C1 3F         [ 2]  268 	cmpb	#63	;cmpqi:
   01F4 23 05         [ 3]  269 	bls	L18
   01F6 C6 66         [ 2]  270 	ldb	#102
   01F8 E7 C8 15      [ 5]  271 	stb	21,u
   01FB                     272 L18:
   01FB E6 C8 1B      [ 5]  273 	ldb	27,u
   01FE 4F            [ 2]  274 	clra		;zero_extendqihi: R:b -> R:d
   01FF ED C4         [ 5]  275 	std	,u
   0201 30 AB         [ 8]  276 	leax	d,y
   0203 E6 C8 15      [ 5]  277 	ldb	21,u
   0206 E7 84         [ 4]  278 	stb	,x
   0208 EC 42         [ 6]  279 	ldd	2,u
   020A C3 00 01      [ 4]  280 	addd	#1; addhi3,3
   020D ED 42         [ 6]  281 	std	2,u
                            282 		;movlsbqihi: D->B
   020F E1 C8 30      [ 5]  283 	cmpb	48,u	;cmpqi:(R)
   0212 25 BC         [ 3]  284 	blo	L19
   0214                     285 L16:
   0214 6A C8 30      [ 7]  286 	dec	48,u
   0217 E6 C8 30      [ 5]  287 	ldb	48,u
   021A 4F            [ 2]  288 	clra		;zero_extendqihi: R:b -> R:d
   021B ED C4         [ 5]  289 	std	,u
   021D 30 AB         [ 8]  290 	leax	d,y
   021F C6 80         [ 2]  291 	ldb	#-128
   0221 E7 84         [ 4]  292 	stb	,x
   0223 10 AF 4E      [ 7]  293 	sty	14,u
   0226 10 AE 4A      [ 7]  294 	ldy	10,u
   0229 AE 4C         [ 6]  295 	ldx	12,u
   022B AF 42         [ 6]  296 	stx	2,u
   022D                     297 L20:
   022D BD`00`00      [ 8]  298 	jsr	___Wait_Recal
   0230 BD`00`00      [ 8]  299 	jsr	___Intensity_5F
   0233 8E`00`00      [ 3]  300 	ldx	#_yy0
   0236 BD`00`00      [ 8]  301 	jsr	__Print_List
   0239 C6 46         [ 2]  302 	ldb	#70
   023B E7 E2         [ 6]  303 	stb	,-s
   023D AE 4E         [ 6]  304 	ldx	14,u
   023F C6 88         [ 2]  305 	ldb	#-120
   0241 BD`00`00      [ 8]  306 	jsr	__Print_Str_d
   0244 C6 14         [ 2]  307 	ldb	#20
   0246 E7 E2         [ 6]  308 	stb	,-s
   0248 30 A4         [ 4]  309 	leax	,y
   024A C6 88         [ 2]  310 	ldb	#-120
   024C BD`00`00      [ 8]  311 	jsr	__Print_Str_d
   024F C6 E2         [ 2]  312 	ldb	#-30
   0251 E7 E2         [ 6]  313 	stb	,-s
   0253 AE 42         [ 6]  314 	ldx	2,u
   0255 C6 88         [ 2]  315 	ldb	#-120
   0257 BD`00`00      [ 8]  316 	jsr	__Print_Str_d
   025A C6 B0         [ 2]  317 	ldb	#-80
   025C E7 E2         [ 6]  318 	stb	,-s
   025E 30 C8 1D      [ 5]  319 	leax	29,u
   0261 C6 88         [ 2]  320 	ldb	#-120
   0263 BD`00`00      [ 8]  321 	jsr	__Print_Str_d
   0266 BD`00`00      [ 8]  322 	jsr	___Read_Btns
   0269 32 64         [ 5]  323 	leas	4,s
   026B F6`00`00      [ 5]  324 	ldb	_Vec_Buttons
   026E C5 01         [ 2]  325 	bitb	#1
   0270 27 BB         [ 3]  326 	beq	L20
   0272 AE C8 10      [ 6]  327 	ldx	16,u
   0275 BF`00`00      [ 6]  328 	stx	_Vec_Text_HW
   0278 10 EE 45      [ 7]  329 	lds	5,u
   027B 32 E8 24      [ 5]  330 	leas	36,s
   027E 35 E0         [ 8]  331 	puls	y,u,pc
   0280                     332 L2:
   0280 10 EF 4A      [ 7]  333 	sts	10,u
   0283 C6 FF         [ 2]  334 	ldb	#-1
   0285 E7 C8 18      [ 5]  335 	stb	24,u
   0288 16 FE 25      [ 5]  336 	lbra	L6
ASxxxx Assembler V05.50  (Motorola 6809)                                Page 1
Hexadecimal [16-Bits]                                 Wed Jul 30 01:16:24 2025

Symbol Table

    .__.$$$.       =   2710 L   |     .__.ABS.       =   0000 G
    .__.CPU.       =   0000 L   |     .__.H$L.       =   0001 L
  2 L12                0149 R   |   2 L13                01B6 R
  2 L14                0199 R   |   2 L16                0214 R
  2 L17                01ED R   |   2 L18                01FB R
  2 L19                01D0 R   |   2 L2                 0280 R
  2 L20                022D R   |   2 L22                017E R
  2 L23                011C R   |   2 L3                 0098 R
  2 L31                006F R   |   2 L32                0144 R
  2 L4                 0077 R   |   2 L5                 00FC R
  2 L6                 00B0 R   |   2 L7                 00D9 R
  2 L8                 00B3 R   |   2 L9                 0133 R
    _Vec_Buttons       **** GX  |     _Vec_Text_HW       **** GX
    __Add_Score_a      **** GX  |     __Print_List       **** GX
    __Print_Str_d      **** GX  |     ___Clear_Score     **** GX
    ___Clear_Sound     **** GX  |     ___Intensity_5     **** GX
    ___Read_Btns       **** GX  |     ___Wait_Recal      **** GX
  2 __f_assert_fai     002E GR  |   2 _mm0               0002 GR
  2 _mm1               0013 GR  |   2 _mm2               001B GR
  2 _mm3               0027 GR  |   2 _xx0               0001 GR
  2 _xx1               0012 GR  |   2 _xx2               001A GR
  2 _xx3               0026 GR  |   2 _yy0               0000 GR
  2 _yy1               0011 GR  |   2 _yy2               0019 GR
  2 _yy3               0025 GR

ASxxxx Assembler V05.50  (Motorola 6809)                                Page 2
Hexadecimal [16-Bits]                                 Wed Jul 30 01:16:24 2025

Area Table

[_CSEG]
   0 _CODE            size    0   flags C080
   2 .text            size  28B   flags  100
[_DSEG]
   1 _DATA            size    0   flags C0C0

